
pi-shell.elf:     file format elf32-littlearm


Disassembly of section .text:

00008000 <_start>:
    8000:	e3a0d302 	mov	sp, #134217728	; 0x8000000
    8004:	e3a0b000 	mov	fp, #0
    8008:	eb0002f8 	bl	8bf0 <_cstart>
    800c:	eb000270 	bl	89d4 <rpi_reboot>

00008010 <notmain>:
    8010:	e92d4ff0 	push	{r4, r5, r6, r7, r8, r9, sl, fp, lr}
    8014:	e24ddb01 	sub	sp, sp, #1024	; 0x400
    8018:	e24dd004 	sub	sp, sp, #4
    801c:	eb000316 	bl	8c7c <uart_init>
    8020:	eb0003e5 	bl	8fbc <sw_uart_init>
    8024:	e3a04000 	mov	r4, #0
    8028:	e59f91ec 	ldr	r9, [pc, #492]	; 821c <notmain+0x20c>
    802c:	ea000064 	b	81c4 <notmain+0x1b4>
    8030:	e1a0000d 	mov	r0, sp
    8034:	e1a01009 	mov	r1, r9
    8038:	e3a02004 	mov	r2, #4
    803c:	eb0002da 	bl	8bac <strncmp>
    8040:	e3500000 	cmp	r0, #0
    8044:	1a000003 	bne	8058 <notmain+0x48>
    8048:	e59f01d0 	ldr	r0, [pc, #464]	; 8220 <notmain+0x210>
    804c:	e1a0100d 	mov	r1, sp
    8050:	eb0000ef 	bl	8414 <printk>
    8054:	ea00006e 	b	8214 <notmain+0x204>
    8058:	e1a0000d 	mov	r0, sp
    805c:	e59f11c0 	ldr	r1, [pc, #448]	; 8224 <notmain+0x214>
    8060:	e3a02006 	mov	r2, #6
    8064:	eb0002d0 	bl	8bac <strncmp>
    8068:	e3500000 	cmp	r0, #0
    806c:	1a000005 	bne	8088 <notmain+0x78>
    8070:	e59f01a8 	ldr	r0, [pc, #424]	; 8220 <notmain+0x210>
    8074:	e59f11ac 	ldr	r1, [pc, #428]	; 8228 <notmain+0x218>
    8078:	eb0000e5 	bl	8414 <printk>
    807c:	e3a00064 	mov	r0, #100	; 0x64
    8080:	eb00028b 	bl	8ab4 <delay_ms>
    8084:	eb000270 	bl	8a4c <clean_reboot>
    8088:	e1a0000d 	mov	r0, sp
    808c:	e59f1198 	ldr	r1, [pc, #408]	; 822c <notmain+0x21c>
    8090:	e3a02003 	mov	r2, #3
    8094:	eb0002c4 	bl	8bac <strncmp>
    8098:	e3500000 	cmp	r0, #0
    809c:	1a000002 	bne	80ac <notmain+0x9c>
    80a0:	eb0000b0 	bl	8368 <load_code>
    80a4:	eb0002d0 	bl	8bec <BRANCHTO>
    80a8:	ea000059 	b	8214 <notmain+0x204>
    80ac:	e1a0000d 	mov	r0, sp
    80b0:	e59f1178 	ldr	r1, [pc, #376]	; 8230 <notmain+0x220>
    80b4:	e3a02003 	mov	r2, #3
    80b8:	eb0002bb 	bl	8bac <strncmp>
    80bc:	e3500000 	cmp	r0, #0
    80c0:	1a000053 	bne	8214 <notmain+0x204>
    80c4:	eb000359 	bl	8e30 <sw_uart_getc>
    80c8:	e3500000 	cmp	r0, #0
    80cc:	1afffffc 	bne	80c4 <notmain+0xb4>
    80d0:	e59f015c 	ldr	r0, [pc, #348]	; 8234 <notmain+0x224>
    80d4:	eb0000ce 	bl	8414 <printk>
    80d8:	e3a04000 	mov	r4, #0
    80dc:	e59f6154 	ldr	r6, [pc, #340]	; 8238 <notmain+0x228>
    80e0:	e3e07b01 	mvn	r7, #1024	; 0x400
    80e4:	e59fa150 	ldr	sl, [pc, #336]	; 823c <notmain+0x22c>
    80e8:	e59fb150 	ldr	fp, [pc, #336]	; 8240 <notmain+0x230>
    80ec:	e59f8150 	ldr	r8, [pc, #336]	; 8244 <notmain+0x234>
    80f0:	ea00001a 	b	8160 <notmain+0x150>
    80f4:	e2444001 	sub	r4, r4, #1
    80f8:	e28d2b01 	add	r2, sp, #1024	; 0x400
    80fc:	e0824004 	add	r4, r2, r4
    8100:	e3a03000 	mov	r3, #0
    8104:	e5443400 	strb	r3, [r4, #-1024]	; 0x400
    8108:	e59f0138 	ldr	r0, [pc, #312]	; 8248 <notmain+0x238>
    810c:	e1a0100d 	mov	r1, sp
    8110:	e1a02005 	mov	r2, r5
    8114:	eb0000be 	bl	8414 <printk>
    8118:	e3a0300d 	mov	r3, #13
    811c:	e5443400 	strb	r3, [r4, #-1024]	; 0x400
    8120:	e1a0000d 	mov	r0, sp
    8124:	e1a01005 	mov	r1, r5
    8128:	eb00037e 	bl	8f28 <sw_uart_send_data>
    812c:	e1a0000b 	mov	r0, fp
    8130:	eb0000b7 	bl	8414 <printk>
    8134:	e3a04b01 	mov	r4, #1024	; 0x400
    8138:	ea000002 	b	8148 <notmain+0x138>
    813c:	e1a00008 	mov	r0, r8
    8140:	e1a0100d 	mov	r1, sp
    8144:	eb0000b2 	bl	8414 <printk>
    8148:	e1a0000d 	mov	r0, sp
    814c:	e1a01004 	mov	r1, r4
    8150:	eb00035b 	bl	8ec4 <sw_uart_readline>
    8154:	e2502000 	subs	r2, r0, #0
    8158:	1afffff7 	bne	813c <notmain+0x12c>
    815c:	e3a04000 	mov	r4, #0
    8160:	eb0002fd 	bl	8d5c <uart_getc>
    8164:	e6ef0070 	uxtb	r0, r0
    8168:	e28d2b01 	add	r2, sp, #1024	; 0x400
    816c:	e0823004 	add	r3, r2, r4
    8170:	e5430400 	strb	r0, [r3, #-1024]	; 0x400
    8174:	e350000a 	cmp	r0, #10
    8178:	1a000008 	bne	81a0 <notmain+0x190>
    817c:	e7d33007 	ldrb	r3, [r3, r7]
    8180:	e353000d 	cmp	r3, #13
    8184:	1a000005 	bne	81a0 <notmain+0x190>
    8188:	e0825004 	add	r5, r2, r4
    818c:	e3a03000 	mov	r3, #0
    8190:	e7c5300a 	strb	r3, [r5, sl]
    8194:	e2945001 	adds	r5, r4, #1
    8198:	1affffd5 	bne	80f4 <notmain+0xe4>
    819c:	ea00001c 	b	8214 <notmain+0x204>
    81a0:	e2844001 	add	r4, r4, #1
    81a4:	e1540006 	cmp	r4, r6
    81a8:	daffffec 	ble	8160 <notmain+0x150>
    81ac:	e59f0098 	ldr	r0, [pc, #152]	; 824c <notmain+0x23c>
    81b0:	e59f1098 	ldr	r1, [pc, #152]	; 8250 <notmain+0x240>
    81b4:	e59f2098 	ldr	r2, [pc, #152]	; 8254 <notmain+0x244>
    81b8:	e3a0301b 	mov	r3, #27
    81bc:	eb000094 	bl	8414 <printk>
    81c0:	eb000203 	bl	89d4 <rpi_reboot>
    81c4:	eb0002e4 	bl	8d5c <uart_getc>
    81c8:	e6ef0070 	uxtb	r0, r0
    81cc:	e7cd0004 	strb	r0, [sp, r4]
    81d0:	e350000a 	cmp	r0, #10
    81d4:	1a000004 	bne	81ec <notmain+0x1dc>
    81d8:	e3a03000 	mov	r3, #0
    81dc:	e7cd3004 	strb	r3, [sp, r4]
    81e0:	e1540003 	cmp	r4, r3
    81e4:	1affff91 	bne	8030 <notmain+0x20>
    81e8:	ea000008 	b	8210 <notmain+0x200>
    81ec:	e2844001 	add	r4, r4, #1
    81f0:	e3540b01 	cmp	r4, #1024	; 0x400
    81f4:	bafffff2 	blt	81c4 <notmain+0x1b4>
    81f8:	e59f004c 	ldr	r0, [pc, #76]	; 824c <notmain+0x23c>
    81fc:	e59f104c 	ldr	r1, [pc, #76]	; 8250 <notmain+0x240>
    8200:	e59f2050 	ldr	r2, [pc, #80]	; 8258 <notmain+0x248>
    8204:	e3a0300e 	mov	r3, #14
    8208:	eb000081 	bl	8414 <printk>
    820c:	eb0001f0 	bl	89d4 <rpi_reboot>
    8210:	eb00020d 	bl	8a4c <clean_reboot>
    8214:	e3a04000 	mov	r4, #0
    8218:	eaffffe9 	b	81c4 <notmain+0x1b4>
    821c:	00009ac0 	andeq	r9, r0, r0, asr #21
    8220:	00009ac8 	andeq	r9, r0, r8, asr #21
    8224:	00009acc 	andeq	r9, r0, ip, asr #21
    8228:	00009a94 	muleq	r0, r4, sl
    822c:	00009ad4 	ldrdeq	r9, [r0], -r4
    8230:	00009ad8 	ldrdeq	r9, [r0], -r8
    8234:	00009adc 	ldrdeq	r9, [r0], -ip
    8238:	000003fe 	strdeq	r0, [r0], -lr
    823c:	fffffc01 			; <UNDEFINED> instruction: 0xfffffc01
    8240:	00009b00 	andeq	r9, r0, r0, lsl #22
    8244:	00009b0c 	andeq	r9, r0, ip, lsl #22
    8248:	00009ae8 	andeq	r9, r0, r8, ror #21
    824c:	00009b28 	andeq	r9, r0, r8, lsr #22
    8250:	00009b48 	andeq	r9, r0, r8, asr #22
    8254:	00009aa4 	andeq	r9, r0, r4, lsr #21
    8258:	00009ab4 			; <UNDEFINED> instruction: 0x00009ab4

0000825c <crc32>:
    825c:	e3510000 	cmp	r1, #0
    8260:	0a00000a 	beq	8290 <crc32+0x34>
    8264:	e080c001 	add	ip, r0, r1
    8268:	e3e03000 	mvn	r3, #0
    826c:	e59f1028 	ldr	r1, [pc, #40]	; 829c <crc32+0x40>
    8270:	e4d02001 	ldrb	r2, [r0], #1
    8274:	e0232002 	eor	r2, r3, r2
    8278:	e6ef2072 	uxtb	r2, r2
    827c:	e7912102 	ldr	r2, [r1, r2, lsl #2]
    8280:	e0223423 	eor	r3, r2, r3, lsr #8
    8284:	e150000c 	cmp	r0, ip
    8288:	1afffff8 	bne	8270 <crc32+0x14>
    828c:	ea000000 	b	8294 <crc32+0x38>
    8290:	e3e03000 	mvn	r3, #0
    8294:	e1e00003 	mvn	r0, r3
    8298:	e12fff1e 	bx	lr
    829c:	00009b54 	andeq	r9, r0, r4, asr fp

000082a0 <get_uint>:
    82a0:	e92d4038 	push	{r3, r4, r5, lr}
    82a4:	eb0002ac 	bl	8d5c <uart_getc>
    82a8:	e6ef5070 	uxtb	r5, r0
    82ac:	eb0002aa 	bl	8d5c <uart_getc>
    82b0:	e1a04000 	mov	r4, r0
    82b4:	eb0002a8 	bl	8d5c <uart_getc>
    82b8:	e6ef4074 	uxtb	r4, r4
    82bc:	e6ef0070 	uxtb	r0, r0
    82c0:	e1a00800 	lsl	r0, r0, #16
    82c4:	e1804404 	orr	r4, r0, r4, lsl #8
    82c8:	e1844005 	orr	r4, r4, r5
    82cc:	eb0002a2 	bl	8d5c <uart_getc>
    82d0:	e1840c00 	orr	r0, r4, r0, lsl #24
    82d4:	e8bd8038 	pop	{r3, r4, r5, pc}

000082d8 <put_uint>:
    82d8:	e92d4010 	push	{r4, lr}
    82dc:	e1a04000 	mov	r4, r0
    82e0:	e6ef0070 	uxtb	r0, r0
    82e4:	eb0002a8 	bl	8d8c <uart_putc>
    82e8:	e1a00424 	lsr	r0, r4, #8
    82ec:	e6ef0070 	uxtb	r0, r0
    82f0:	eb0002a5 	bl	8d8c <uart_putc>
    82f4:	e1a00824 	lsr	r0, r4, #16
    82f8:	e6ef0070 	uxtb	r0, r0
    82fc:	eb0002a2 	bl	8d8c <uart_putc>
    8300:	e1a00c24 	lsr	r0, r4, #24
    8304:	eb0002a0 	bl	8d8c <uart_putc>
    8308:	e8bd8010 	pop	{r4, pc}

0000830c <die>:
    830c:	e92d4008 	push	{r3, lr}
    8310:	ebfffff0 	bl	82d8 <put_uint>
    8314:	e3a00064 	mov	r0, #100	; 0x64
    8318:	eb0001e5 	bl	8ab4 <delay_ms>
    831c:	eb0001ac 	bl	89d4 <rpi_reboot>

00008320 <expect>:
    8320:	e92d4010 	push	{r4, lr}
    8324:	e1a04000 	mov	r4, r0
    8328:	ebffffdc 	bl	82a0 <get_uint>
    832c:	e1500004 	cmp	r0, r4
    8330:	08bd8010 	popeq	{r4, pc}
    8334:	e3a00006 	mov	r0, #6
    8338:	ebfffff3 	bl	830c <die>

0000833c <get_binary>:
    833c:	e92d4070 	push	{r4, r5, r6, lr}
    8340:	e1a05000 	mov	r5, r0
    8344:	e2516000 	subs	r6, r1, #0
    8348:	08bd8070 	popeq	{r4, r5, r6, pc}
    834c:	e3a04000 	mov	r4, #0
    8350:	ebffffd2 	bl	82a0 <get_uint>
    8354:	e7850004 	str	r0, [r5, r4]
    8358:	e2844004 	add	r4, r4, #4
    835c:	e1560004 	cmp	r6, r4
    8360:	8afffffa 	bhi	8350 <get_binary+0x14>
    8364:	e8bd8070 	pop	{r4, r5, r6, pc}

00008368 <load_code>:
    8368:	e92d4070 	push	{r4, r5, r6, lr}
    836c:	e3a00005 	mov	r0, #5
    8370:	ebffffd8 	bl	82d8 <put_uint>
    8374:	ebffffc9 	bl	82a0 <get_uint>
    8378:	ebffffc8 	bl	82a0 <get_uint>
    837c:	e1a04000 	mov	r4, r0
    8380:	ebffffc6 	bl	82a0 <get_uint>
    8384:	e1a05000 	mov	r5, r0
    8388:	ebffffc4 	bl	82a0 <get_uint>
    838c:	e1a06000 	mov	r6, r0
    8390:	e3540409 	cmp	r4, #150994944	; 0x9000000
    8394:	3a000002 	bcc	83a4 <load_code+0x3c>
    8398:	e0853004 	add	r3, r5, r4
    839c:	e3530416 	cmp	r3, #369098752	; 0x16000000
    83a0:	3a000001 	bcc	83ac <load_code+0x44>
    83a4:	e3a00004 	mov	r0, #4
    83a8:	ebffffd7 	bl	830c <die>
    83ac:	e3a00005 	mov	r0, #5
    83b0:	ebffffc8 	bl	82d8 <put_uint>
    83b4:	e1a00004 	mov	r0, r4
    83b8:	e1a01005 	mov	r1, r5
    83bc:	ebffffde 	bl	833c <get_binary>
    83c0:	e3a00007 	mov	r0, #7
    83c4:	ebffffd5 	bl	8320 <expect>
    83c8:	e1a00004 	mov	r0, r4
    83cc:	e1a01005 	mov	r1, r5
    83d0:	ebffffa1 	bl	825c <crc32>
    83d4:	e1560000 	cmp	r6, r0
    83d8:	0a000001 	beq	83e4 <load_code+0x7c>
    83dc:	e3a00001 	mov	r0, #1
    83e0:	ebffffc9 	bl	830c <die>
    83e4:	e3a00005 	mov	r0, #5
    83e8:	ebffffba 	bl	82d8 <put_uint>
    83ec:	e3a00064 	mov	r0, #100	; 0x64
    83f0:	eb0001af 	bl	8ab4 <delay_ms>
    83f4:	e2840008 	add	r0, r4, #8
    83f8:	e8bd8070 	pop	{r4, r5, r6, pc}

000083fc <rpi_putchar>:
    83fc:	e92d4010 	push	{r4, lr}
    8400:	e1a04000 	mov	r4, r0
    8404:	e6ef0070 	uxtb	r0, r0
    8408:	eb000294 	bl	8e60 <sw_uart_putc>
    840c:	e1a00004 	mov	r0, r4
    8410:	e8bd8010 	pop	{r4, pc}

00008414 <printk>:
    8414:	e92d000f 	push	{r0, r1, r2, r3}
    8418:	e92d4030 	push	{r4, r5, lr}
    841c:	e24dd00c 	sub	sp, sp, #12
    8420:	e28d301c 	add	r3, sp, #28
    8424:	e58d3004 	str	r3, [sp, #4]
    8428:	e59f4040 	ldr	r4, [pc, #64]	; 8470 <printk+0x5c>
    842c:	e1a00004 	mov	r0, r4
    8430:	e3a01b01 	mov	r1, #1024	; 0x400
    8434:	e59d2018 	ldr	r2, [sp, #24]
    8438:	eb00008c 	bl	8670 <va_printk>
    843c:	e1a05000 	mov	r5, r0
    8440:	e5d40000 	ldrb	r0, [r4]
    8444:	e3500000 	cmp	r0, #0
    8448:	0a000003 	beq	845c <printk+0x48>
    844c:	eb000283 	bl	8e60 <sw_uart_putc>
    8450:	e5f40001 	ldrb	r0, [r4, #1]!
    8454:	e3500000 	cmp	r0, #0
    8458:	1afffffb 	bne	844c <printk+0x38>
    845c:	e1a00005 	mov	r0, r5
    8460:	e28dd00c 	add	sp, sp, #12
    8464:	e8bd4030 	pop	{r4, r5, lr}
    8468:	e28dd010 	add	sp, sp, #16
    846c:	e12fff1e 	bx	lr
    8470:	0000a29c 	muleq	r0, ip, r2

00008474 <emit>:
    8474:	e92d43f0 	push	{r4, r5, r6, r7, r8, r9, lr}
    8478:	e24dd044 	sub	sp, sp, #68	; 0x44
    847c:	e59d5060 	ldr	r5, [sp, #96]	; 0x60
    8480:	e1550002 	cmp	r5, r2
    8484:	c2425001 	subgt	r5, r2, #1
    8488:	e1a0c003 	mov	ip, r3
    848c:	e2400002 	sub	r0, r0, #2
    8490:	e350000e 	cmp	r0, #14
    8494:	979ff100 	ldrls	pc, [pc, r0, lsl #2]
    8498:	ea00003f 	b	859c <emit+0x128>
    849c:	00008574 	andeq	r8, r0, r4, ror r5
    84a0:	0000859c 	muleq	r0, ip, r5
    84a4:	0000859c 	muleq	r0, ip, r5
    84a8:	0000859c 	muleq	r0, ip, r5
    84ac:	0000859c 	muleq	r0, ip, r5
    84b0:	0000859c 	muleq	r0, ip, r5
    84b4:	00008568 	andeq	r8, r0, r8, ror #10
    84b8:	0000859c 	muleq	r0, ip, r5
    84bc:	000084d8 	ldrdeq	r8, [r0], -r8	; <UNPREDICTABLE>
    84c0:	0000859c 	muleq	r0, ip, r5
    84c4:	0000859c 	muleq	r0, ip, r5
    84c8:	0000859c 	muleq	r0, ip, r5
    84cc:	0000859c 	muleq	r0, ip, r5
    84d0:	0000859c 	muleq	r0, ip, r5
    84d4:	00008540 	andeq	r8, r0, r0, asr #10
    84d8:	e59d0064 	ldr	r0, [sp, #100]	; 0x64
    84dc:	e2900000 	adds	r0, r0, #0
    84e0:	13a00001 	movne	r0, #1
    84e4:	e0100fa3 	ands	r0, r0, r3, lsr #31
    84e8:	1263c000 	rsbne	ip, r3, #0
    84ec:	13a09001 	movne	r9, #1
    84f0:	03a09000 	moveq	r9, #0
    84f4:	e1a0000d 	mov	r0, sp
    84f8:	e59f8154 	ldr	r8, [pc, #340]	; 8654 <emit+0x1e0>
    84fc:	e59f7154 	ldr	r7, [pc, #340]	; 8658 <emit+0x1e4>
    8500:	e1a03000 	mov	r3, r0
    8504:	e0846c97 	umull	r6, r4, r7, ip
    8508:	e1a041a4 	lsr	r4, r4, #3
    850c:	e0846104 	add	r6, r4, r4, lsl #2
    8510:	e04cc086 	sub	ip, ip, r6, lsl #1
    8514:	e7d8c00c 	ldrb	ip, [r8, ip]
    8518:	e4c3c001 	strb	ip, [r3], #1
    851c:	e1a0c004 	mov	ip, r4
    8520:	e3540000 	cmp	r4, #0
    8524:	11a00003 	movne	r0, r3
    8528:	1afffff4 	bne	8500 <emit+0x8c>
    852c:	e3590000 	cmp	r9, #0
    8530:	12803002 	addne	r3, r0, #2
    8534:	13a0c02d 	movne	ip, #45	; 0x2d
    8538:	15c0c001 	strbne	ip, [r0, #1]
    853c:	ea00001c 	b	85b4 <emit+0x140>
    8540:	e28d4001 	add	r4, sp, #1
    8544:	e59f6110 	ldr	r6, [pc, #272]	; 865c <emit+0x1e8>
    8548:	e1a03004 	mov	r3, r4
    854c:	e20c000f 	and	r0, ip, #15
    8550:	e7d60000 	ldrb	r0, [r6, r0]
    8554:	e5440001 	strb	r0, [r4, #-1]
    8558:	e2844001 	add	r4, r4, #1
    855c:	e1b0c22c 	lsrs	ip, ip, #4
    8560:	1afffff8 	bne	8548 <emit+0xd4>
    8564:	ea000012 	b	85b4 <emit+0x140>
    8568:	e5cd3000 	strb	r3, [sp]
    856c:	e28d3001 	add	r3, sp, #1
    8570:	ea00000f 	b	85b4 <emit+0x140>
    8574:	e28d4001 	add	r4, sp, #1
    8578:	e59f60e0 	ldr	r6, [pc, #224]	; 8660 <emit+0x1ec>
    857c:	e1a03004 	mov	r3, r4
    8580:	e20c0001 	and	r0, ip, #1
    8584:	e7d60000 	ldrb	r0, [r6, r0]
    8588:	e5440001 	strb	r0, [r4, #-1]
    858c:	e2844001 	add	r4, r4, #1
    8590:	e1b0c0ac 	lsrs	ip, ip, #1
    8594:	1afffff8 	bne	857c <emit+0x108>
    8598:	ea000005 	b	85b4 <emit+0x140>
    859c:	e59f00c0 	ldr	r0, [pc, #192]	; 8664 <emit+0x1f0>
    85a0:	e59f10c0 	ldr	r1, [pc, #192]	; 8668 <emit+0x1f4>
    85a4:	e59f20c0 	ldr	r2, [pc, #192]	; 866c <emit+0x1f8>
    85a8:	e3a0308d 	mov	r3, #141	; 0x8d
    85ac:	ebffff98 	bl	8414 <printk>
    85b0:	eb000107 	bl	89d4 <rpi_reboot>
    85b4:	e1a0400d 	mov	r4, sp
    85b8:	e064c003 	rsb	ip, r4, r3
    85bc:	e155000c 	cmp	r5, ip
    85c0:	da000006 	ble	85e0 <emit+0x16c>
    85c4:	e06cc005 	rsb	ip, ip, r5
    85c8:	e083c00c 	add	ip, r3, ip
    85cc:	e3a00020 	mov	r0, #32
    85d0:	e4c30001 	strb	r0, [r3], #1
    85d4:	e153000c 	cmp	r3, ip
    85d8:	1afffffc 	bne	85d0 <emit+0x15c>
    85dc:	ea000000 	b	85e4 <emit+0x170>
    85e0:	e1a0c003 	mov	ip, r3
    85e4:	e3a03000 	mov	r3, #0
    85e8:	e5cc3000 	strb	r3, [ip]
    85ec:	e064400c 	rsb	r4, r4, ip
    85f0:	e2844001 	add	r4, r4, #1
    85f4:	e1520004 	cmp	r2, r4
    85f8:	b0624004 	rsblt	r4, r2, r4
    85fc:	b08d3003 	addlt	r3, sp, r3
    8600:	b0834004 	addlt	r4, r3, r4
    8604:	a1a0400d 	movge	r4, sp
    8608:	e24c3001 	sub	r3, ip, #1
    860c:	e1540003 	cmp	r4, r3
    8610:	8a000009 	bhi	863c <emit+0x1c8>
    8614:	e1a0000c 	mov	r0, ip
    8618:	e1a0300c 	mov	r3, ip
    861c:	e1a02001 	mov	r2, r1
    8620:	e573c001 	ldrb	ip, [r3, #-1]!
    8624:	e4c2c001 	strb	ip, [r2], #1
    8628:	e1530004 	cmp	r3, r4
    862c:	1afffffb 	bne	8620 <emit+0x1ac>
    8630:	e0644000 	rsb	r4, r4, r0
    8634:	e0814004 	add	r4, r1, r4
    8638:	ea000000 	b	8640 <emit+0x1cc>
    863c:	e1a04001 	mov	r4, r1
    8640:	e3a03000 	mov	r3, #0
    8644:	e5c43000 	strb	r3, [r4]
    8648:	e1a00001 	mov	r0, r1
    864c:	e28dd044 	add	sp, sp, #68	; 0x44
    8650:	e8bd83f0 	pop	{r4, r5, r6, r7, r8, r9, pc}
    8654:	00009f8c 	andeq	r9, r0, ip, lsl #31
    8658:	cccccccd 	stclgt	12, cr12, [ip], {205}	; 0xcd
    865c:	00009f98 	muleq	r0, r8, pc	; <UNPREDICTABLE>
    8660:	00009fac 	andeq	r9, r0, ip, lsr #31
    8664:	00009f68 	andeq	r9, r0, r8, ror #30
    8668:	00009f7c 	andeq	r9, r0, ip, ror pc
    866c:	00009f54 	andeq	r9, r0, r4, asr pc

00008670 <va_printk>:
    8670:	e92d4ff0 	push	{r4, r5, r6, r7, r8, r9, sl, fp, lr}
    8674:	e24dd08c 	sub	sp, sp, #140	; 0x8c
    8678:	e1a07000 	mov	r7, r0
    867c:	e2411001 	sub	r1, r1, #1
    8680:	e0805001 	add	r5, r0, r1
    8684:	e3a01000 	mov	r1, #0
    8688:	e5c01000 	strb	r1, [r0]
    868c:	e1a04000 	mov	r4, r0
    8690:	e1a08001 	mov	r8, r1
    8694:	e3a0a008 	mov	sl, #8
    8698:	e3a09080 	mov	r9, #128	; 0x80
    869c:	ea000088 	b	88c4 <va_printk+0x254>
    86a0:	e3510025 	cmp	r1, #37	; 0x25
    86a4:	12822001 	addne	r2, r2, #1
    86a8:	15c41000 	strbne	r1, [r4]
    86ac:	12844001 	addne	r4, r4, #1
    86b0:	1a000083 	bne	88c4 <va_printk+0x254>
    86b4:	e5d21001 	ldrb	r1, [r2, #1]
    86b8:	e3510025 	cmp	r1, #37	; 0x25
    86bc:	05c41000 	strbeq	r1, [r4]
    86c0:	02822002 	addeq	r2, r2, #2
    86c4:	02844001 	addeq	r4, r4, #1
    86c8:	0a00007d 	beq	88c4 <va_printk+0x254>
    86cc:	e2826001 	add	r6, r2, #1
    86d0:	e1a00001 	mov	r0, r1
    86d4:	e241c030 	sub	ip, r1, #48	; 0x30
    86d8:	e35c0009 	cmp	ip, #9
    86dc:	8a000012 	bhi	872c <va_printk+0xbc>
    86e0:	e2822002 	add	r2, r2, #2
    86e4:	e1a0c008 	mov	ip, r8
    86e8:	e08cc10c 	add	ip, ip, ip, lsl #2
    86ec:	e080c08c 	add	ip, r0, ip, lsl #1
    86f0:	e24cc030 	sub	ip, ip, #48	; 0x30
    86f4:	e1a06002 	mov	r6, r2
    86f8:	e4d21001 	ldrb	r1, [r2], #1
    86fc:	e1a00001 	mov	r0, r1
    8700:	e241b030 	sub	fp, r1, #48	; 0x30
    8704:	e35b0009 	cmp	fp, #9
    8708:	9afffff6 	bls	86e8 <va_printk+0x78>
    870c:	e35c001f 	cmp	ip, #31
    8710:	9a000007 	bls	8734 <va_printk+0xc4>
    8714:	e59f01e8 	ldr	r0, [pc, #488]	; 8904 <va_printk+0x294>
    8718:	e59f11e8 	ldr	r1, [pc, #488]	; 8908 <va_printk+0x298>
    871c:	e59f21e8 	ldr	r2, [pc, #488]	; 890c <va_printk+0x29c>
    8720:	e3a030a9 	mov	r3, #169	; 0xa9
    8724:	ebffff3a 	bl	8414 <printk>
    8728:	eb0000a9 	bl	89d4 <rpi_reboot>
    872c:	e1a00001 	mov	r0, r1
    8730:	e1a0c008 	mov	ip, r8
    8734:	e2411062 	sub	r1, r1, #98	; 0x62
    8738:	e3510016 	cmp	r1, #22
    873c:	979ff101 	ldrls	pc, [pc, r1, lsl #2]
    8740:	ea000052 	b	8890 <va_printk+0x220>
    8744:	00008834 	andeq	r8, r0, r4, lsr r8
    8748:	00008868 	andeq	r8, r0, r8, ror #16
    874c:	000087b8 			; <UNDEFINED> instruction: 0x000087b8
    8750:	00008890 	muleq	r0, r0, r8
    8754:	000087a0 	andeq	r8, r0, r0, lsr #15
    8758:	00008890 	muleq	r0, r0, r8
    875c:	00008890 	muleq	r0, r0, r8
    8760:	00008890 	muleq	r0, r0, r8
    8764:	00008890 	muleq	r0, r0, r8
    8768:	00008890 	muleq	r0, r0, r8
    876c:	00008890 	muleq	r0, r0, r8
    8770:	00008890 	muleq	r0, r0, r8
    8774:	00008890 	muleq	r0, r0, r8
    8778:	00008890 	muleq	r0, r0, r8
    877c:	0000880c 	andeq	r8, r0, ip, lsl #16
    8780:	00008890 	muleq	r0, r0, r8
    8784:	00008890 	muleq	r0, r0, r8
    8788:	0000885c 	andeq	r8, r0, ip, asr r8
    878c:	00008890 	muleq	r0, r0, r8
    8790:	000087e4 	andeq	r8, r0, r4, ror #15
    8794:	00008890 	muleq	r0, r0, r8
    8798:	00008890 	muleq	r0, r0, r8
    879c:	0000880c 	andeq	r8, r0, ip, lsl #16
    87a0:	e59f0168 	ldr	r0, [pc, #360]	; 8910 <va_printk+0x2a0>
    87a4:	e59f115c 	ldr	r1, [pc, #348]	; 8908 <va_printk+0x298>
    87a8:	e59f215c 	ldr	r2, [pc, #348]	; 890c <va_printk+0x29c>
    87ac:	e3a030af 	mov	r3, #175	; 0xaf
    87b0:	ebffff17 	bl	8414 <printk>
    87b4:	eb000086 	bl	89d4 <rpi_reboot>
    87b8:	e283b004 	add	fp, r3, #4
    87bc:	e5933000 	ldr	r3, [r3]
    87c0:	e58dc000 	str	ip, [sp]
    87c4:	e3a02001 	mov	r2, #1
    87c8:	e58d2004 	str	r2, [sp, #4]
    87cc:	e3a0000a 	mov	r0, #10
    87d0:	e28d1008 	add	r1, sp, #8
    87d4:	e1a02009 	mov	r2, r9
    87d8:	ebffff25 	bl	8474 <emit>
    87dc:	e1a0300b 	mov	r3, fp
    87e0:	ea000040 	b	88e8 <va_printk+0x278>
    87e4:	e283b004 	add	fp, r3, #4
    87e8:	e5933000 	ldr	r3, [r3]
    87ec:	e58dc000 	str	ip, [sp]
    87f0:	e58d8004 	str	r8, [sp, #4]
    87f4:	e3a0000a 	mov	r0, #10
    87f8:	e28d1008 	add	r1, sp, #8
    87fc:	e1a02009 	mov	r2, r9
    8800:	ebffff1b 	bl	8474 <emit>
    8804:	e1a0300b 	mov	r3, fp
    8808:	ea000036 	b	88e8 <va_printk+0x278>
    880c:	e283b004 	add	fp, r3, #4
    8810:	e5933000 	ldr	r3, [r3]
    8814:	e58dc000 	str	ip, [sp]
    8818:	e58d8004 	str	r8, [sp, #4]
    881c:	e3a00010 	mov	r0, #16
    8820:	e28d1008 	add	r1, sp, #8
    8824:	e1a02009 	mov	r2, r9
    8828:	ebffff11 	bl	8474 <emit>
    882c:	e1a0300b 	mov	r3, fp
    8830:	ea00002c 	b	88e8 <va_printk+0x278>
    8834:	e283b004 	add	fp, r3, #4
    8838:	e5933000 	ldr	r3, [r3]
    883c:	e58dc000 	str	ip, [sp]
    8840:	e58d8004 	str	r8, [sp, #4]
    8844:	e3a00002 	mov	r0, #2
    8848:	e28d1008 	add	r1, sp, #8
    884c:	e1a02009 	mov	r2, r9
    8850:	ebffff07 	bl	8474 <emit>
    8854:	e1a0300b 	mov	r3, fp
    8858:	ea000022 	b	88e8 <va_printk+0x278>
    885c:	e5930000 	ldr	r0, [r3]
    8860:	e2833004 	add	r3, r3, #4
    8864:	ea00001f 	b	88e8 <va_printk+0x278>
    8868:	e283b004 	add	fp, r3, #4
    886c:	e5933000 	ldr	r3, [r3]
    8870:	e58dc000 	str	ip, [sp]
    8874:	e58d8004 	str	r8, [sp, #4]
    8878:	e1a0000a 	mov	r0, sl
    887c:	e28d1008 	add	r1, sp, #8
    8880:	e1a02009 	mov	r2, r9
    8884:	ebfffefa 	bl	8474 <emit>
    8888:	e1a0300b 	mov	r3, fp
    888c:	ea000015 	b	88e8 <va_printk+0x278>
    8890:	e58d0000 	str	r0, [sp]
    8894:	e59f0078 	ldr	r0, [pc, #120]	; 8914 <va_printk+0x2a4>
    8898:	e59f1068 	ldr	r1, [pc, #104]	; 8908 <va_printk+0x298>
    889c:	e59f2068 	ldr	r2, [pc, #104]	; 890c <va_printk+0x29c>
    88a0:	e3a030d0 	mov	r3, #208	; 0xd0
    88a4:	ebfffeda 	bl	8414 <printk>
    88a8:	eb000049 	bl	89d4 <rpi_reboot>
    88ac:	e4c41001 	strb	r1, [r4], #1
    88b0:	e1540005 	cmp	r4, r5
    88b4:	0a000002 	beq	88c4 <va_printk+0x254>
    88b8:	e5f01001 	ldrb	r1, [r0, #1]!
    88bc:	e3510000 	cmp	r1, #0
    88c0:	1afffff9 	bne	88ac <va_printk+0x23c>
    88c4:	e5d21000 	ldrb	r1, [r2]
    88c8:	e3510000 	cmp	r1, #0
    88cc:	0a000001 	beq	88d8 <va_printk+0x268>
    88d0:	e1540005 	cmp	r4, r5
    88d4:	3affff71 	bcc	86a0 <va_printk+0x30>
    88d8:	e3a03000 	mov	r3, #0
    88dc:	e4c43001 	strb	r3, [r4], #1
    88e0:	e0670004 	rsb	r0, r7, r4
    88e4:	ea000004 	b	88fc <va_printk+0x28c>
    88e8:	e2862001 	add	r2, r6, #1
    88ec:	e5d01000 	ldrb	r1, [r0]
    88f0:	e3510000 	cmp	r1, #0
    88f4:	0afffff2 	beq	88c4 <va_printk+0x254>
    88f8:	eaffffeb 	b	88ac <va_printk+0x23c>
    88fc:	e28dd08c 	add	sp, sp, #140	; 0x8c
    8900:	e8bd8ff0 	pop	{r4, r5, r6, r7, r8, r9, sl, fp, pc}
    8904:	00009fb0 			; <UNDEFINED> instruction: 0x00009fb0
    8908:	00009f7c 	andeq	r9, r0, ip, ror pc
    890c:	00009f5c 	andeq	r9, r0, ip, asr pc
    8910:	00009fcc 	andeq	r9, r0, ip, asr #31
    8914:	00009ff4 	strdeq	r9, [r0], -r4

00008918 <snprintk>:
    8918:	e92d000c 	push	{r2, r3}
    891c:	e52de004 	push	{lr}		; (str lr, [sp, #-4]!)
    8920:	e24dd00c 	sub	sp, sp, #12
    8924:	e28d3014 	add	r3, sp, #20
    8928:	e58d3004 	str	r3, [sp, #4]
    892c:	e59d2010 	ldr	r2, [sp, #16]
    8930:	ebffff4e 	bl	8670 <va_printk>
    8934:	e28dd00c 	add	sp, sp, #12
    8938:	e49de004 	pop	{lr}		; (ldr lr, [sp], #4)
    893c:	e28dd008 	add	sp, sp, #8
    8940:	e12fff1e 	bx	lr

00008944 <putk>:
    8944:	e92d4010 	push	{r4, lr}
    8948:	e1a04000 	mov	r4, r0
    894c:	e5d00000 	ldrb	r0, [r0]
    8950:	e3500000 	cmp	r0, #0
    8954:	0a000003 	beq	8968 <putk+0x24>
    8958:	eb000140 	bl	8e60 <sw_uart_putc>
    895c:	e5f40001 	ldrb	r0, [r4, #1]!
    8960:	e3500000 	cmp	r0, #0
    8964:	1afffffb 	bne	8958 <putk+0x14>
    8968:	e3a00001 	mov	r0, #1
    896c:	e8bd8010 	pop	{r4, pc}

00008970 <panic>:
    8970:	e92d4008 	push	{r3, lr}
    8974:	e1a06000 	mov	r6, r0
    8978:	e1a05001 	mov	r5, r1
    897c:	e1a04002 	mov	r4, r2
    8980:	e59f0018 	ldr	r0, [pc, #24]	; 89a0 <panic+0x30>
    8984:	ebffffee 	bl	8944 <putk>
    8988:	e59f0014 	ldr	r0, [pc, #20]	; 89a4 <panic+0x34>
    898c:	e1a01006 	mov	r1, r6
    8990:	e1a02005 	mov	r2, r5
    8994:	e1a03004 	mov	r3, r4
    8998:	ebfffe9d 	bl	8414 <printk>
    899c:	eb00000c 	bl	89d4 <rpi_reboot>
    89a0:	0000a02c 	andeq	sl, r0, ip, lsr #32
    89a4:	0000a038 	andeq	sl, r0, r8, lsr r0

000089a8 <at_user_level>:
    89a8:	e10f0000 	mrs	r0, CPSR
    89ac:	e200001f 	and	r0, r0, #31
    89b0:	e3500010 	cmp	r0, #16
    89b4:	13a00000 	movne	r0, #0
    89b8:	03a00001 	moveq	r0, #1
    89bc:	e12fff1e 	bx	lr

000089c0 <set_user_level>:
    89c0:	e10f3000 	mrs	r3, CPSR
    89c4:	e3c3301f 	bic	r3, r3, #31
    89c8:	e3833010 	orr	r3, r3, #16
    89cc:	e129f003 	msr	CPSR_fc, r3
    89d0:	e12fff1e 	bx	lr

000089d4 <rpi_reboot>:
    89d4:	e92d4008 	push	{r3, lr}
    89d8:	ebfffff2 	bl	89a8 <at_user_level>
    89dc:	e3500000 	cmp	r0, #0
    89e0:	0a000009 	beq	8a0c <rpi_reboot+0x38>
    89e4:	ebfffff5 	bl	89c0 <set_user_level>
    89e8:	ebffffee 	bl	89a8 <at_user_level>
    89ec:	e3500000 	cmp	r0, #0
    89f0:	1a000005 	bne	8a0c <rpi_reboot+0x38>
    89f4:	e59f0034 	ldr	r0, [pc, #52]	; 8a30 <rpi_reboot+0x5c>
    89f8:	e59f1034 	ldr	r1, [pc, #52]	; 8a34 <rpi_reboot+0x60>
    89fc:	e59f2034 	ldr	r2, [pc, #52]	; 8a38 <rpi_reboot+0x64>
    8a00:	e3a0301f 	mov	r3, #31
    8a04:	ebfffe82 	bl	8414 <printk>
    8a08:	ebfffff1 	bl	89d4 <rpi_reboot>
    8a0c:	e3a0001e 	mov	r0, #30
    8a10:	eb000027 	bl	8ab4 <delay_ms>
    8a14:	e59f0020 	ldr	r0, [pc, #32]	; 8a3c <rpi_reboot+0x68>
    8a18:	e59f1020 	ldr	r1, [pc, #32]	; 8a40 <rpi_reboot+0x6c>
    8a1c:	eb000089 	bl	8c48 <PUT32>
    8a20:	e59f001c 	ldr	r0, [pc, #28]	; 8a44 <rpi_reboot+0x70>
    8a24:	e59f101c 	ldr	r1, [pc, #28]	; 8a48 <rpi_reboot+0x74>
    8a28:	eb000086 	bl	8c48 <PUT32>
    8a2c:	eafffffe 	b	8a2c <rpi_reboot+0x58>
    8a30:	0000a064 	andeq	sl, r0, r4, rrx
    8a34:	0000a084 	andeq	sl, r0, r4, lsl #1
    8a38:	0000a058 	andeq	sl, r0, r8, asr r0
    8a3c:	20100024 	andscs	r0, r0, r4, lsr #32
    8a40:	5a000001 	bpl	8a4c <clean_reboot>
    8a44:	2010001c 	andscs	r0, r0, ip, lsl r0
    8a48:	5a000020 	bpl	8ad0 <memset+0x8>

00008a4c <clean_reboot>:
    8a4c:	e92d4008 	push	{r3, lr}
    8a50:	e3a00032 	mov	r0, #50	; 0x32
    8a54:	eb000016 	bl	8ab4 <delay_ms>
    8a58:	ebffffdd 	bl	89d4 <rpi_reboot>

00008a5c <delay>:
    8a5c:	e2403001 	sub	r3, r0, #1
    8a60:	e3500000 	cmp	r0, #0
    8a64:	012fff1e 	bxeq	lr
    8a68:	e2811000 	add	r1, r1, #0
    8a6c:	e2433001 	sub	r3, r3, #1
    8a70:	e3730001 	cmn	r3, #1
    8a74:	1afffffb 	bne	8a68 <delay+0xc>
    8a78:	e12fff1e 	bx	lr

00008a7c <timer_get_time>:
    8a7c:	e92d4008 	push	{r3, lr}
    8a80:	e59f0004 	ldr	r0, [pc, #4]	; 8a8c <timer_get_time+0x10>
    8a84:	eb000077 	bl	8c68 <GET32>
    8a88:	e8bd8008 	pop	{r3, pc}
    8a8c:	20003004 	andcs	r3, r0, r4

00008a90 <delay_us>:
    8a90:	e92d4038 	push	{r3, r4, r5, lr}
    8a94:	e1a05000 	mov	r5, r0
    8a98:	ebfffff7 	bl	8a7c <timer_get_time>
    8a9c:	e1a04000 	mov	r4, r0
    8aa0:	ebfffff5 	bl	8a7c <timer_get_time>
    8aa4:	e0640000 	rsb	r0, r4, r0
    8aa8:	e1500005 	cmp	r0, r5
    8aac:	3afffffb 	bcc	8aa0 <delay_us+0x10>
    8ab0:	e8bd8038 	pop	{r3, r4, r5, pc}

00008ab4 <delay_ms>:
    8ab4:	e92d4008 	push	{r3, lr}
    8ab8:	e3a03ffa 	mov	r3, #1000	; 0x3e8
    8abc:	e0000093 	mul	r0, r3, r0
    8ac0:	ebfffff2 	bl	8a90 <delay_us>
    8ac4:	e8bd8008 	pop	{r3, pc}

00008ac8 <memset>:
    8ac8:	e0802002 	add	r2, r0, r2
    8acc:	e1500002 	cmp	r0, r2
    8ad0:	212fff1e 	bxcs	lr
    8ad4:	e1a03000 	mov	r3, r0
    8ad8:	e4c31001 	strb	r1, [r3], #1
    8adc:	e1530002 	cmp	r3, r2
    8ae0:	1afffffc 	bne	8ad8 <memset+0x10>
    8ae4:	e12fff1e 	bx	lr

00008ae8 <memcmp>:
    8ae8:	e52d4004 	push	{r4}		; (str r4, [sp, #-4]!)
    8aec:	e3520000 	cmp	r2, #0
    8af0:	0a00000f 	beq	8b34 <memcmp+0x4c>
    8af4:	e5d04000 	ldrb	r4, [r0]
    8af8:	e5d13000 	ldrb	r3, [r1]
    8afc:	e0543003 	subs	r3, r4, r3
    8b00:	1a00000d 	bne	8b3c <memcmp+0x54>
    8b04:	e1a03000 	mov	r3, r0
    8b08:	e242c001 	sub	ip, r2, #1
    8b0c:	e080c00c 	add	ip, r0, ip
    8b10:	ea000003 	b	8b24 <memcmp+0x3c>
    8b14:	e5f30001 	ldrb	r0, [r3, #1]!
    8b18:	e5f12001 	ldrb	r2, [r1, #1]!
    8b1c:	e0500002 	subs	r0, r0, r2
    8b20:	1a000006 	bne	8b40 <memcmp+0x58>
    8b24:	e153000c 	cmp	r3, ip
    8b28:	1afffff9 	bne	8b14 <memcmp+0x2c>
    8b2c:	e3a00000 	mov	r0, #0
    8b30:	ea000002 	b	8b40 <memcmp+0x58>
    8b34:	e3a00000 	mov	r0, #0
    8b38:	ea000000 	b	8b40 <memcmp+0x58>
    8b3c:	e1a00003 	mov	r0, r3
    8b40:	e49d4004 	pop	{r4}		; (ldr r4, [sp], #4)
    8b44:	e12fff1e 	bx	lr

00008b48 <memcpy>:
    8b48:	e1803001 	orr	r3, r0, r1
    8b4c:	e3130003 	tst	r3, #3
    8b50:	1a000001 	bne	8b5c <memcpy+0x14>
    8b54:	e3120003 	tst	r2, #3
    8b58:	0a000003 	beq	8b6c <memcpy+0x24>
    8b5c:	e3520000 	cmp	r2, #0
    8b60:	13a03000 	movne	r3, #0
    8b64:	1a00000a 	bne	8b94 <memcpy+0x4c>
    8b68:	e12fff1e 	bx	lr
    8b6c:	e1b02122 	lsrs	r2, r2, #2
    8b70:	012fff1e 	bxeq	lr
    8b74:	e1a0c102 	lsl	ip, r2, #2
    8b78:	e3a03000 	mov	r3, #0
    8b7c:	e7912003 	ldr	r2, [r1, r3]
    8b80:	e7802003 	str	r2, [r0, r3]
    8b84:	e2833004 	add	r3, r3, #4
    8b88:	e153000c 	cmp	r3, ip
    8b8c:	1afffffa 	bne	8b7c <memcpy+0x34>
    8b90:	e12fff1e 	bx	lr
    8b94:	e7d1c003 	ldrb	ip, [r1, r3]
    8b98:	e7c0c003 	strb	ip, [r0, r3]
    8b9c:	e2833001 	add	r3, r3, #1
    8ba0:	e1530002 	cmp	r3, r2
    8ba4:	1afffffa 	bne	8b94 <memcpy+0x4c>
    8ba8:	e12fff1e 	bx	lr

00008bac <strncmp>:
    8bac:	e0802002 	add	r2, r0, r2
    8bb0:	ea000005 	b	8bcc <strncmp+0x20>
    8bb4:	e4d0c001 	ldrb	ip, [r0], #1
    8bb8:	e4d13001 	ldrb	r3, [r1], #1
    8bbc:	e15c0003 	cmp	ip, r3
    8bc0:	0a000001 	beq	8bcc <strncmp+0x20>
    8bc4:	e063000c 	rsb	r0, r3, ip
    8bc8:	e12fff1e 	bx	lr
    8bcc:	e1500002 	cmp	r0, r2
    8bd0:	1afffff7 	bne	8bb4 <strncmp+0x8>
    8bd4:	e3a00000 	mov	r0, #0
    8bd8:	e12fff1e 	bx	lr

00008bdc <dev_barrier>:
    8bdc:	e92d4008 	push	{r3, lr}
    8be0:	eb000245 	bl	94fc <dmb>
    8be4:	eb000246 	bl	9504 <dsb>
    8be8:	e8bd8008 	pop	{r3, pc}

00008bec <BRANCHTO>:
    8bec:	e12fff10 	bx	r0

00008bf0 <_cstart>:
    8bf0:	e92d4008 	push	{r3, lr}
    8bf4:	e59f3038 	ldr	r3, [pc, #56]	; 8c34 <_cstart+0x44>
    8bf8:	e59f2038 	ldr	r2, [pc, #56]	; 8c38 <_cstart+0x48>
    8bfc:	e1520003 	cmp	r2, r3
    8c00:	2a000009 	bcs	8c2c <_cstart+0x3c>
    8c04:	e2423004 	sub	r3, r2, #4
    8c08:	e59f102c 	ldr	r1, [pc, #44]	; 8c3c <_cstart+0x4c>
    8c0c:	e0631001 	rsb	r1, r3, r1
    8c10:	e3c11003 	bic	r1, r1, #3
    8c14:	e2832004 	add	r2, r3, #4
    8c18:	e0811002 	add	r1, r1, r2
    8c1c:	e3a02000 	mov	r2, #0
    8c20:	e5a32004 	str	r2, [r3, #4]!
    8c24:	e1530001 	cmp	r3, r1
    8c28:	1afffffc 	bne	8c20 <_cstart+0x30>
    8c2c:	ebfffcf7 	bl	8010 <notmain>
    8c30:	ebffff67 	bl	89d4 <rpi_reboot>
    8c34:	0000a6a0 	andeq	sl, r0, r0, lsr #13
    8c38:	0000a29c 	muleq	r0, ip, r2
    8c3c:	0000a69b 	muleq	r0, fp, r6

00008c40 <put32>:
    8c40:	e5801000 	str	r1, [r0]
    8c44:	e12fff1e 	bx	lr

00008c48 <PUT32>:
    8c48:	e5801000 	str	r1, [r0]
    8c4c:	e12fff1e 	bx	lr

00008c50 <PUT16>:
    8c50:	e1c010b0 	strh	r1, [r0]
    8c54:	e12fff1e 	bx	lr

00008c58 <PUT8>:
    8c58:	e5c01000 	strb	r1, [r0]
    8c5c:	e12fff1e 	bx	lr

00008c60 <get32>:
    8c60:	e5900000 	ldr	r0, [r0]
    8c64:	e12fff1e 	bx	lr

00008c68 <GET32>:
    8c68:	e5900000 	ldr	r0, [r0]
    8c6c:	e12fff1e 	bx	lr

00008c70 <GETPC>:
    8c70:	e1a0000e 	mov	r0, lr
    8c74:	e12fff1e 	bx	lr

00008c78 <dummy>:
    8c78:	e12fff1e 	bx	lr

00008c7c <uart_init>:
    8c7c:	e92d4010 	push	{r4, lr}
    8c80:	e3a0000e 	mov	r0, #14
    8c84:	e3a01002 	mov	r1, #2
    8c88:	eb00021f 	bl	950c <gpio_set_function>
    8c8c:	e3a0000f 	mov	r0, #15
    8c90:	e3a01002 	mov	r1, #2
    8c94:	eb00021c 	bl	950c <gpio_set_function>
    8c98:	ebffffcf 	bl	8bdc <dev_barrier>
    8c9c:	e59f008c 	ldr	r0, [pc, #140]	; 8d30 <uart_init+0xb4>
    8ca0:	e3a01001 	mov	r1, #1
    8ca4:	ebffffe7 	bl	8c48 <PUT32>
    8ca8:	ebffffcb 	bl	8bdc <dev_barrier>
    8cac:	e59f4080 	ldr	r4, [pc, #128]	; 8d34 <uart_init+0xb8>
    8cb0:	e1a00004 	mov	r0, r4
    8cb4:	e3a01000 	mov	r1, #0
    8cb8:	ebffffe2 	bl	8c48 <PUT32>
    8cbc:	e59f0074 	ldr	r0, [pc, #116]	; 8d38 <uart_init+0xbc>
    8cc0:	e3a01000 	mov	r1, #0
    8cc4:	ebffffdf 	bl	8c48 <PUT32>
    8cc8:	e59f006c 	ldr	r0, [pc, #108]	; 8d3c <uart_init+0xc0>
    8ccc:	e3a01000 	mov	r1, #0
    8cd0:	ebffffdc 	bl	8c48 <PUT32>
    8cd4:	e59f0064 	ldr	r0, [pc, #100]	; 8d40 <uart_init+0xc4>
    8cd8:	e3a010c7 	mov	r1, #199	; 0xc7
    8cdc:	ebffffd9 	bl	8c48 <PUT32>
    8ce0:	e59f005c 	ldr	r0, [pc, #92]	; 8d44 <uart_init+0xc8>
    8ce4:	e3a01003 	mov	r1, #3
    8ce8:	ebffffd6 	bl	8c48 <PUT32>
    8cec:	e59f0054 	ldr	r0, [pc, #84]	; 8d48 <uart_init+0xcc>
    8cf0:	e3a01000 	mov	r1, #0
    8cf4:	ebffffd3 	bl	8c48 <PUT32>
    8cf8:	e59f004c 	ldr	r0, [pc, #76]	; 8d4c <uart_init+0xd0>
    8cfc:	e3a01040 	mov	r1, #64	; 0x40
    8d00:	ebffffd0 	bl	8c48 <PUT32>
    8d04:	e59f0044 	ldr	r0, [pc, #68]	; 8d50 <uart_init+0xd4>
    8d08:	e3a01020 	mov	r1, #32
    8d0c:	ebffffcd 	bl	8c48 <PUT32>
    8d10:	e59f003c 	ldr	r0, [pc, #60]	; 8d54 <uart_init+0xd8>
    8d14:	e59f103c 	ldr	r1, [pc, #60]	; 8d58 <uart_init+0xdc>
    8d18:	ebffffca 	bl	8c48 <PUT32>
    8d1c:	e1a00004 	mov	r0, r4
    8d20:	e3a01003 	mov	r1, #3
    8d24:	ebffffc7 	bl	8c48 <PUT32>
    8d28:	ebffffab 	bl	8bdc <dev_barrier>
    8d2c:	e8bd8010 	pop	{r4, pc}
    8d30:	20215004 	eorcs	r5, r1, r4
    8d34:	20215060 	eorcs	r5, r1, r0, rrx
    8d38:	20215040 	eorcs	r5, r1, r0, asr #32
    8d3c:	20215044 	eorcs	r5, r1, r4, asr #32
    8d40:	20215048 	eorcs	r5, r1, r8, asr #32
    8d44:	2021504c 	eorcs	r5, r1, ip, asr #32
    8d48:	20215050 	eorcs	r5, r1, r0, asr r0
    8d4c:	00202154 	eoreq	r2, r0, r4, asr r1
    8d50:	20215058 	eorcs	r5, r1, r8, asr r0
    8d54:	20215068 	eorcs	r5, r1, r8, rrx
    8d58:	00000cb6 			; <UNDEFINED> instruction: 0x00000cb6

00008d5c <uart_getc>:
    8d5c:	e92d4010 	push	{r4, lr}
    8d60:	e59f401c 	ldr	r4, [pc, #28]	; 8d84 <uart_getc+0x28>
    8d64:	e1a00004 	mov	r0, r4
    8d68:	ebffffbe 	bl	8c68 <GET32>
    8d6c:	e3100001 	tst	r0, #1
    8d70:	0afffffb 	beq	8d64 <uart_getc+0x8>
    8d74:	e59f000c 	ldr	r0, [pc, #12]	; 8d88 <uart_getc+0x2c>
    8d78:	ebffffba 	bl	8c68 <GET32>
    8d7c:	e6ef0070 	uxtb	r0, r0
    8d80:	e8bd8010 	pop	{r4, pc}
    8d84:	20215064 	eorcs	r5, r1, r4, rrx
    8d88:	20215040 	eorcs	r5, r1, r0, asr #32

00008d8c <uart_putc>:
    8d8c:	e92d4038 	push	{r3, r4, r5, lr}
    8d90:	e1a05000 	mov	r5, r0
    8d94:	e59f401c 	ldr	r4, [pc, #28]	; 8db8 <uart_putc+0x2c>
    8d98:	e1a00004 	mov	r0, r4
    8d9c:	ebffffb1 	bl	8c68 <GET32>
    8da0:	e3100002 	tst	r0, #2
    8da4:	0afffffb 	beq	8d98 <uart_putc+0xc>
    8da8:	e59f000c 	ldr	r0, [pc, #12]	; 8dbc <uart_putc+0x30>
    8dac:	e6ef1075 	uxtb	r1, r5
    8db0:	ebffffa4 	bl	8c48 <PUT32>
    8db4:	e8bd8038 	pop	{r3, r4, r5, pc}
    8db8:	20215064 	eorcs	r5, r1, r4, rrx
    8dbc:	20215040 	eorcs	r5, r1, r0, asr #32

00008dc0 <int_handler>:
    8dc0:	e92d4008 	push	{r3, lr}
    8dc4:	e3a00006 	mov	r0, #6
    8dc8:	eb000233 	bl	969c <gpio_event_detected>
    8dcc:	e3500000 	cmp	r0, #0
    8dd0:	08bd8008 	popeq	{r3, pc}
    8dd4:	e3a00006 	mov	r0, #6
    8dd8:	eb00023d 	bl	96d4 <gpio_event_clear>
    8ddc:	e8bd8008 	pop	{r3, pc}

00008de0 <sw_uart_read_byte>:
    8de0:	e92d40f8 	push	{r3, r4, r5, r6, r7, lr}
    8de4:	e3a00068 	mov	r0, #104	; 0x68
    8de8:	ebffff28 	bl	8a90 <delay_us>
    8dec:	e3a04000 	mov	r4, #0
    8df0:	e1a05004 	mov	r5, r4
    8df4:	e3a07006 	mov	r7, #6
    8df8:	e3a06068 	mov	r6, #104	; 0x68
    8dfc:	e1a00007 	mov	r0, r7
    8e00:	eb000208 	bl	9628 <gpio_read>
    8e04:	e1850410 	orr	r0, r5, r0, lsl r4
    8e08:	e6ef5070 	uxtb	r5, r0
    8e0c:	e1a00006 	mov	r0, r6
    8e10:	ebffff1e 	bl	8a90 <delay_us>
    8e14:	e2844001 	add	r4, r4, #1
    8e18:	e3540008 	cmp	r4, #8
    8e1c:	1afffff6 	bne	8dfc <sw_uart_read_byte+0x1c>
    8e20:	e3a00006 	mov	r0, #6
    8e24:	eb0001ff 	bl	9628 <gpio_read>
    8e28:	e1a00005 	mov	r0, r5
    8e2c:	e8bd80f8 	pop	{r3, r4, r5, r6, r7, pc}

00008e30 <sw_uart_getc>:
    8e30:	e92d4038 	push	{r3, r4, r5, lr}
    8e34:	e3a04006 	mov	r4, #6
    8e38:	e3a05034 	mov	r5, #52	; 0x34
    8e3c:	ea000001 	b	8e48 <sw_uart_getc+0x18>
    8e40:	e1a00005 	mov	r0, r5
    8e44:	ebffff11 	bl	8a90 <delay_us>
    8e48:	e1a00004 	mov	r0, r4
    8e4c:	eb0001f5 	bl	9628 <gpio_read>
    8e50:	e3500000 	cmp	r0, #0
    8e54:	1afffff9 	bne	8e40 <sw_uart_getc+0x10>
    8e58:	ebffffe0 	bl	8de0 <sw_uart_read_byte>
    8e5c:	e8bd8038 	pop	{r3, r4, r5, pc}

00008e60 <sw_uart_putc>:
    8e60:	e92d40f8 	push	{r3, r4, r5, r6, r7, lr}
    8e64:	e1a07000 	mov	r7, r0
    8e68:	e3a00005 	mov	r0, #5
    8e6c:	e3a01000 	mov	r1, #0
    8e70:	eb0001e5 	bl	960c <gpio_write>
    8e74:	e3a00068 	mov	r0, #104	; 0x68
    8e78:	ebffff04 	bl	8a90 <delay_us>
    8e7c:	e3a04000 	mov	r4, #0
    8e80:	e3a06005 	mov	r6, #5
    8e84:	e3a05068 	mov	r5, #104	; 0x68
    8e88:	e1a01457 	asr	r1, r7, r4
    8e8c:	e1a00006 	mov	r0, r6
    8e90:	e2011001 	and	r1, r1, #1
    8e94:	eb0001dc 	bl	960c <gpio_write>
    8e98:	e1a00005 	mov	r0, r5
    8e9c:	ebfffefb 	bl	8a90 <delay_us>
    8ea0:	e2844001 	add	r4, r4, #1
    8ea4:	e3540008 	cmp	r4, #8
    8ea8:	1afffff6 	bne	8e88 <sw_uart_putc+0x28>
    8eac:	e3a00005 	mov	r0, #5
    8eb0:	e3a01001 	mov	r1, #1
    8eb4:	eb0001d4 	bl	960c <gpio_write>
    8eb8:	e3a00068 	mov	r0, #104	; 0x68
    8ebc:	ebfffef3 	bl	8a90 <delay_us>
    8ec0:	e8bd80f8 	pop	{r3, r4, r5, r6, r7, pc}

00008ec4 <sw_uart_readline>:
    8ec4:	e92d41f0 	push	{r4, r5, r6, r7, r8, lr}
    8ec8:	e1a06000 	mov	r6, r0
    8ecc:	e3510000 	cmp	r1, #0
    8ed0:	0a000010 	beq	8f18 <sw_uart_readline+0x54>
    8ed4:	e1a08001 	mov	r8, r1
    8ed8:	e3a05000 	mov	r5, #0
    8edc:	e1a04005 	mov	r4, r5
    8ee0:	e0867005 	add	r7, r6, r5
    8ee4:	ebffffd1 	bl	8e30 <sw_uart_getc>
    8ee8:	e7c60005 	strb	r0, [r6, r5]
    8eec:	e350000a 	cmp	r0, #10
    8ef0:	1a000003 	bne	8f04 <sw_uart_readline+0x40>
    8ef4:	e3a03000 	mov	r3, #0
    8ef8:	e5c73000 	strb	r3, [r7]
    8efc:	e1a00004 	mov	r0, r4
    8f00:	e8bd81f0 	pop	{r4, r5, r6, r7, r8, pc}
    8f04:	e2844001 	add	r4, r4, #1
    8f08:	e1a05004 	mov	r5, r4
    8f0c:	e1540008 	cmp	r4, r8
    8f10:	1afffff2 	bne	8ee0 <sw_uart_readline+0x1c>
    8f14:	ea000001 	b	8f20 <sw_uart_readline+0x5c>
    8f18:	e3e00000 	mvn	r0, #0
    8f1c:	e8bd81f0 	pop	{r4, r5, r6, r7, r8, pc}
    8f20:	e3e00000 	mvn	r0, #0
    8f24:	e8bd81f0 	pop	{r4, r5, r6, r7, r8, pc}

00008f28 <sw_uart_send_data>:
    8f28:	e92d4038 	push	{r3, r4, r5, lr}
    8f2c:	e3510000 	cmp	r1, #0
    8f30:	08bd8038 	popeq	{r3, r4, r5, pc}
    8f34:	e1a04000 	mov	r4, r0
    8f38:	e0805001 	add	r5, r0, r1
    8f3c:	e4d40001 	ldrb	r0, [r4], #1
    8f40:	ebffffc6 	bl	8e60 <sw_uart_putc>
    8f44:	e1540005 	cmp	r4, r5
    8f48:	1afffffb 	bne	8f3c <sw_uart_send_data+0x14>
    8f4c:	e8bd8038 	pop	{r3, r4, r5, pc}

00008f50 <sw_uart_writeline>:
    8f50:	e92d4010 	push	{r4, lr}
    8f54:	e1a04000 	mov	r4, r0
    8f58:	e5d00000 	ldrb	r0, [r0]
    8f5c:	e350000a 	cmp	r0, #10
    8f60:	0a000003 	beq	8f74 <sw_uart_writeline+0x24>
    8f64:	ebffffbd 	bl	8e60 <sw_uart_putc>
    8f68:	e5d40000 	ldrb	r0, [r4]
    8f6c:	e350000a 	cmp	r0, #10
    8f70:	1afffffb 	bne	8f64 <sw_uart_writeline+0x14>
    8f74:	e3a0000a 	mov	r0, #10
    8f78:	ebffffb8 	bl	8e60 <sw_uart_putc>
    8f7c:	e8bd8010 	pop	{r4, pc}

00008f80 <sw_uart_init_rx>:
    8f80:	e92d4008 	push	{r3, lr}
    8f84:	e3a00006 	mov	r0, #6
    8f88:	eb000181 	bl	9594 <gpio_set_input>
    8f8c:	e3a00006 	mov	r0, #6
    8f90:	eb00012f 	bl	9454 <gpio_set_pullup>
    8f94:	e8bd8008 	pop	{r3, pc}

00008f98 <sw_uart_init_tx>:
    8f98:	e92d4008 	push	{r3, lr}
    8f9c:	e3a00005 	mov	r0, #5
    8fa0:	eb000177 	bl	9584 <gpio_set_output>
    8fa4:	e3a00005 	mov	r0, #5
    8fa8:	eb000129 	bl	9454 <gpio_set_pullup>
    8fac:	e3a00005 	mov	r0, #5
    8fb0:	e3a01001 	mov	r1, #1
    8fb4:	eb000194 	bl	960c <gpio_write>
    8fb8:	e8bd8008 	pop	{r3, pc}

00008fbc <sw_uart_init>:
    8fbc:	e92d4008 	push	{r3, lr}
    8fc0:	ebffffee 	bl	8f80 <sw_uart_init_rx>
    8fc4:	ebfffff3 	bl	8f98 <sw_uart_init_tx>
    8fc8:	e8bd8008 	pop	{r3, pc}
    8fcc:	6f697067 	svcvs	0x00697067
    8fd0:	6765725f 			; <UNDEFINED> instruction: 0x6765725f
    8fd4:	726f665f 	rsbvc	r6, pc, #99614720	; 0x5f00000
    8fd8:	6576655f 	ldrbvs	r6, [r6, #-1375]!	; 0x55f
    8fdc:	0000746e 	andeq	r7, r0, lr, ror #8
    8fe0:	ff000014 			; <UNDEFINED> instruction: 0xff000014

00008fe4 <gpio_reg_for_event>:
    8fe4:	e1a0c00d 	mov	ip, sp
    8fe8:	e92dd810 	push	{r4, fp, ip, lr, pc}
    8fec:	e24cb004 	sub	fp, ip, #4
    8ff0:	e24dd01c 	sub	sp, sp, #28
    8ff4:	e1a04000 	mov	r4, r0
    8ff8:	e24bc02c 	sub	ip, fp, #44	; 0x2c
    8ffc:	e59fe034 	ldr	lr, [pc, #52]	; 9038 <gpio_reg_for_event+0x54>
    9000:	e8be000f 	ldm	lr!, {r0, r1, r2, r3}
    9004:	e8ac000f 	stmia	ip!, {r0, r1, r2, r3}
    9008:	e89e0003 	ldm	lr, {r0, r1}
    900c:	e88c0003 	stm	ip, {r0, r1}
    9010:	e3540005 	cmp	r4, #5
    9014:	8a000005 	bhi	9030 <gpio_reg_for_event+0x4c>
    9018:	e24b3014 	sub	r3, fp, #20
    901c:	e0834104 	add	r4, r3, r4, lsl #2
    9020:	e5140018 	ldr	r0, [r4, #-24]
    9024:	e24bd010 	sub	sp, fp, #16
    9028:	e89d6810 	ldm	sp, {r4, fp, sp, lr}
    902c:	e12fff1e 	bx	lr
    9030:	e3a00000 	mov	r0, #0
    9034:	eafffffa 	b	9024 <gpio_reg_for_event+0x40>
    9038:	0000a094 	muleq	r0, r4, r0
    903c:	6f697067 	svcvs	0x00697067
    9040:	7465735f 	strbtvc	r7, [r5], #-863	; 0x35f
    9044:	6475705f 	ldrbtvs	r7, [r5], #-95	; 0x5f
    9048:	00000000 	andeq	r0, r0, r0
    904c:	ff000010 			; <UNDEFINED> instruction: 0xff000010

00009050 <gpio_set_pud>:
    9050:	e1a0c00d 	mov	ip, sp
    9054:	e92dd800 	push	{fp, ip, lr, pc}
    9058:	e24cb004 	sub	fp, ip, #4
    905c:	e24dd008 	sub	sp, sp, #8
    9060:	e3500035 	cmp	r0, #53	; 0x35
    9064:	8a00001e 	bhi	90e4 <gpio_set_pud+0x94>
    9068:	e1a022a0 	lsr	r2, r0, #5
    906c:	e200001f 	and	r0, r0, #31
    9070:	e59f3078 	ldr	r3, [pc, #120]	; 90f0 <gpio_set_pud+0xa0>
    9074:	e5831094 	str	r1, [r3, #148]	; 0x94
    9078:	e3a03000 	mov	r3, #0
    907c:	e50b3014 	str	r3, [fp, #-20]
    9080:	ea000002 	b	9090 <gpio_set_pud+0x40>
    9084:	e51b3014 	ldr	r3, [fp, #-20]
    9088:	e2833001 	add	r3, r3, #1
    908c:	e50b3014 	str	r3, [fp, #-20]
    9090:	e51b3014 	ldr	r3, [fp, #-20]
    9094:	e3530095 	cmp	r3, #149	; 0x95
    9098:	dafffff9 	ble	9084 <gpio_set_pud+0x34>
    909c:	e3a03001 	mov	r3, #1
    90a0:	e1a00013 	lsl	r0, r3, r0
    90a4:	e2823026 	add	r3, r2, #38	; 0x26
    90a8:	e59f1040 	ldr	r1, [pc, #64]	; 90f0 <gpio_set_pud+0xa0>
    90ac:	e7810103 	str	r0, [r1, r3, lsl #2]
    90b0:	e3a03000 	mov	r3, #0
    90b4:	e50b3010 	str	r3, [fp, #-16]
    90b8:	ea000002 	b	90c8 <gpio_set_pud+0x78>
    90bc:	e51b3010 	ldr	r3, [fp, #-16]
    90c0:	e2833001 	add	r3, r3, #1
    90c4:	e50b3010 	str	r3, [fp, #-16]
    90c8:	e51b3010 	ldr	r3, [fp, #-16]
    90cc:	e3530095 	cmp	r3, #149	; 0x95
    90d0:	dafffff9 	ble	90bc <gpio_set_pud+0x6c>
    90d4:	e2822026 	add	r2, r2, #38	; 0x26
    90d8:	e59f3010 	ldr	r3, [pc, #16]	; 90f0 <gpio_set_pud+0xa0>
    90dc:	e3a01000 	mov	r1, #0
    90e0:	e7831102 	str	r1, [r3, r2, lsl #2]
    90e4:	e24bd00c 	sub	sp, fp, #12
    90e8:	e89d6800 	ldm	sp, {fp, sp, lr}
    90ec:	e12fff1e 	bx	lr
    90f0:	20200000 	eorcs	r0, r0, r0
    90f4:	6f697067 	svcvs	0x00697067
    90f8:	7465675f 	strbtvc	r6, [r5], #-1887	; 0x75f
    90fc:	6576655f 	ldrbvs	r6, [r6, #-1375]!	; 0x55f
    9100:	645f746e 	ldrbvs	r7, [pc], #-1134	; 9108 <gpio_set_pud+0xb8>
    9104:	63657465 	cmnvs	r5, #1694498816	; 0x65000000
    9108:	6e6f6974 	mcrvs	9, 3, r6, cr15, cr4, {3}
    910c:	00000000 	andeq	r0, r0, r0
    9110:	ff00001c 			; <UNDEFINED> instruction: 0xff00001c

00009114 <gpio_get_event_detection>:
    9114:	e1a0c00d 	mov	ip, sp
    9118:	e92dd830 	push	{r4, r5, fp, ip, lr, pc}
    911c:	e24cb004 	sub	fp, ip, #4
    9120:	e1a04000 	mov	r4, r0
    9124:	e1a00001 	mov	r0, r1
    9128:	ebffffad 	bl	8fe4 <gpio_reg_for_event>
    912c:	e1a03000 	mov	r3, r0
    9130:	e2700001 	rsbs	r0, r0, #1
    9134:	33a00000 	movcc	r0, #0
    9138:	e3540035 	cmp	r4, #53	; 0x35
    913c:	83800001 	orrhi	r0, r0, #1
    9140:	e3500000 	cmp	r0, #0
    9144:	1a000009 	bne	9170 <gpio_get_event_detection+0x5c>
    9148:	e1a022a4 	lsr	r2, r4, #5
    914c:	e204401f 	and	r4, r4, #31
    9150:	e7933102 	ldr	r3, [r3, r2, lsl #2]
    9154:	e3a02001 	mov	r2, #1
    9158:	e0133412 	ands	r3, r3, r2, lsl r4
    915c:	11a00002 	movne	r0, r2
    9160:	03a00000 	moveq	r0, #0
    9164:	e24bd014 	sub	sp, fp, #20
    9168:	e89d6830 	ldm	sp, {r4, r5, fp, sp, lr}
    916c:	e12fff1e 	bx	lr
    9170:	e3a00000 	mov	r0, #0
    9174:	eafffffa 	b	9164 <gpio_get_event_detection+0x50>
    9178:	6f697067 	svcvs	0x00697067
    917c:	6568635f 	strbvs	r6, [r8, #-863]!	; 0x35f
    9180:	655f6b63 	ldrbvs	r6, [pc, #-2915]	; 8625 <emit+0x1b1>
    9184:	746e6576 	strbtvc	r6, [lr], #-1398	; 0x576
    9188:	00000000 	andeq	r0, r0, r0
    918c:	ff000014 			; <UNDEFINED> instruction: 0xff000014

00009190 <gpio_check_event>:
    9190:	e1a0c00d 	mov	ip, sp
    9194:	e92dd800 	push	{fp, ip, lr, pc}
    9198:	e24cb004 	sub	fp, ip, #4
    919c:	e3500035 	cmp	r0, #53	; 0x35
    91a0:	8a00000b 	bhi	91d4 <gpio_check_event+0x44>
    91a4:	e1a032a0 	lsr	r3, r0, #5
    91a8:	e200001f 	and	r0, r0, #31
    91ac:	e2833010 	add	r3, r3, #16
    91b0:	e59f2024 	ldr	r2, [pc, #36]	; 91dc <gpio_check_event+0x4c>
    91b4:	e7923103 	ldr	r3, [r2, r3, lsl #2]
    91b8:	e3a02001 	mov	r2, #1
    91bc:	e0133012 	ands	r3, r3, r2, lsl r0
    91c0:	11a00002 	movne	r0, r2
    91c4:	03a00000 	moveq	r0, #0
    91c8:	e24bd00c 	sub	sp, fp, #12
    91cc:	e89d6800 	ldm	sp, {fp, sp, lr}
    91d0:	e12fff1e 	bx	lr
    91d4:	e3a00000 	mov	r0, #0
    91d8:	eafffffa 	b	91c8 <gpio_check_event+0x38>
    91dc:	20200000 	eorcs	r0, r0, r0
    91e0:	6f697067 	svcvs	0x00697067
    91e4:	656c635f 	strbvs	r6, [ip, #-863]!	; 0x35f
    91e8:	655f7261 	ldrbvs	r7, [pc, #-609]	; 8f8f <sw_uart_init_rx+0xf>
    91ec:	746e6576 	strbtvc	r6, [lr], #-1398	; 0x576
    91f0:	00000000 	andeq	r0, r0, r0
    91f4:	ff000014 			; <UNDEFINED> instruction: 0xff000014

000091f8 <gpio_clear_event>:
    91f8:	e1a0c00d 	mov	ip, sp
    91fc:	e92dd830 	push	{r4, r5, fp, ip, lr, pc}
    9200:	e24cb004 	sub	fp, ip, #4
    9204:	e3500035 	cmp	r0, #53	; 0x35
    9208:	9a000002 	bls	9218 <gpio_clear_event+0x20>
    920c:	e24bd014 	sub	sp, fp, #20
    9210:	e89d6830 	ldm	sp, {r4, r5, fp, sp, lr}
    9214:	e12fff1e 	bx	lr
    9218:	e1a042a0 	lsr	r4, r0, #5
    921c:	e200501f 	and	r5, r0, #31
    9220:	ebffffda 	bl	9190 <gpio_check_event>
    9224:	e3500000 	cmp	r0, #0
    9228:	0afffff7 	beq	920c <gpio_clear_event+0x14>
    922c:	e3a03001 	mov	r3, #1
    9230:	e1a03513 	lsl	r3, r3, r5
    9234:	e2844010 	add	r4, r4, #16
    9238:	e59f2004 	ldr	r2, [pc, #4]	; 9244 <gpio_clear_event+0x4c>
    923c:	e7823104 	str	r3, [r2, r4, lsl #2]
    9240:	eafffff1 	b	920c <gpio_clear_event+0x14>
    9244:	20200000 	eorcs	r0, r0, r0
    9248:	6f697067 	svcvs	0x00697067
    924c:	7465735f 	strbtvc	r7, [r5], #-863	; 0x35f
    9250:	7465645f 	strbtvc	r6, [r5], #-1119	; 0x45f
    9254:	69746365 	ldmdbvs	r4!, {r0, r2, r5, r6, r8, r9, sp, lr}^
    9258:	00006e6f 	andeq	r6, r0, pc, ror #28
    925c:	ff000014 			; <UNDEFINED> instruction: 0xff000014

00009260 <gpio_set_detection>:
    9260:	e1a0c00d 	mov	ip, sp
    9264:	e92dd830 	push	{r4, r5, fp, ip, lr, pc}
    9268:	e24cb004 	sub	fp, ip, #4
    926c:	e1a04000 	mov	r4, r0
    9270:	e1a05002 	mov	r5, r2
    9274:	e1a00001 	mov	r0, r1
    9278:	ebffff59 	bl	8fe4 <gpio_reg_for_event>
    927c:	e1a03000 	mov	r3, r0
    9280:	e2700001 	rsbs	r0, r0, #1
    9284:	33a00000 	movcc	r0, #0
    9288:	e3540035 	cmp	r4, #53	; 0x35
    928c:	83800001 	orrhi	r0, r0, #1
    9290:	e3500000 	cmp	r0, #0
    9294:	1a000009 	bne	92c0 <gpio_set_detection+0x60>
    9298:	e1a022a4 	lsr	r2, r4, #5
    929c:	e204001f 	and	r0, r4, #31
    92a0:	e3550000 	cmp	r5, #0
    92a4:	0a000008 	beq	92cc <gpio_set_detection+0x6c>
    92a8:	e7931102 	ldr	r1, [r3, r2, lsl #2]
    92ac:	e3a0c001 	mov	ip, #1
    92b0:	e181101c 	orr	r1, r1, ip, lsl r0
    92b4:	e7831102 	str	r1, [r3, r2, lsl #2]
    92b8:	e1a00004 	mov	r0, r4
    92bc:	ebffffcd 	bl	91f8 <gpio_clear_event>
    92c0:	e24bd014 	sub	sp, fp, #20
    92c4:	e89d6830 	ldm	sp, {r4, r5, fp, sp, lr}
    92c8:	e12fff1e 	bx	lr
    92cc:	e7931102 	ldr	r1, [r3, r2, lsl #2]
    92d0:	e3a0c001 	mov	ip, #1
    92d4:	e1c1101c 	bic	r1, r1, ip, lsl r0
    92d8:	e7831102 	str	r1, [r3, r2, lsl #2]
    92dc:	eafffff5 	b	92b8 <gpio_set_detection+0x58>
    92e0:	6f697067 	svcvs	0x00697067
    92e4:	7369645f 	cmnvc	r9, #1593835520	; 0x5f000000
    92e8:	656c6261 	strbvs	r6, [ip, #-609]!	; 0x261
    92ec:	6576655f 	ldrbvs	r6, [r6, #-1375]!	; 0x55f
    92f0:	645f746e 	ldrbvs	r7, [pc], #-1134	; 92f8 <gpio_set_detection+0x98>
    92f4:	63657465 	cmnvs	r5, #1694498816	; 0x65000000
    92f8:	6e6f6974 	mcrvs	9, 3, r6, cr15, cr4, {3}
    92fc:	00000000 	andeq	r0, r0, r0
    9300:	ff000020 			; <UNDEFINED> instruction: 0xff000020

00009304 <gpio_disable_event_detection>:
    9304:	e1a0c00d 	mov	ip, sp
    9308:	e92dd800 	push	{fp, ip, lr, pc}
    930c:	e24cb004 	sub	fp, ip, #4
    9310:	e3a02000 	mov	r2, #0
    9314:	ebffffd1 	bl	9260 <gpio_set_detection>
    9318:	e24bd00c 	sub	sp, fp, #12
    931c:	e89d6800 	ldm	sp, {fp, sp, lr}
    9320:	e12fff1e 	bx	lr
    9324:	6f697067 	svcvs	0x00697067
    9328:	616e655f 	cmnvs	lr, pc, asr r5
    932c:	5f656c62 	svcpl	0x00656c62
    9330:	6e657665 	cdpvs	6, 6, cr7, cr5, cr5, {3}
    9334:	65645f74 	strbvs	r5, [r4, #-3956]!	; 0xf74
    9338:	74636574 	strbtvc	r6, [r3], #-1396	; 0x574
    933c:	006e6f69 	rsbeq	r6, lr, r9, ror #30
    9340:	ff00001c 			; <UNDEFINED> instruction: 0xff00001c

00009344 <gpio_enable_event_detection>:
    9344:	e1a0c00d 	mov	ip, sp
    9348:	e92dd800 	push	{fp, ip, lr, pc}
    934c:	e24cb004 	sub	fp, ip, #4
    9350:	e3a02001 	mov	r2, #1
    9354:	ebffffc1 	bl	9260 <gpio_set_detection>
    9358:	e24bd00c 	sub	sp, fp, #12
    935c:	e89d6800 	ldm	sp, {fp, sp, lr}
    9360:	e12fff1e 	bx	lr
    9364:	6f697067 	svcvs	0x00697067
    9368:	6568635f 	strbvs	r6, [r8, #-863]!	; 0x35f
    936c:	615f6b63 	cmpvs	pc, r3, ror #22
    9370:	635f646e 	cmpvs	pc, #1845493760	; 0x6e000000
    9374:	7261656c 	rsbvc	r6, r1, #108, 10	; 0x1b000000
    9378:	6576655f 	ldrbvs	r6, [r6, #-1375]!	; 0x55f
    937c:	0000746e 	andeq	r7, r0, lr, ror #8
    9380:	ff00001c 			; <UNDEFINED> instruction: 0xff00001c

00009384 <gpio_check_and_clear_event>:
    9384:	e1a0c00d 	mov	ip, sp
    9388:	e92dd830 	push	{r4, r5, fp, ip, lr, pc}
    938c:	e24cb004 	sub	fp, ip, #4
    9390:	e1a04000 	mov	r4, r0
    9394:	e3500035 	cmp	r0, #53	; 0x35
    9398:	9a000004 	bls	93b0 <gpio_check_and_clear_event+0x2c>
    939c:	e3a05000 	mov	r5, #0
    93a0:	e1a00005 	mov	r0, r5
    93a4:	e24bd014 	sub	sp, fp, #20
    93a8:	e89d6830 	ldm	sp, {r4, r5, fp, sp, lr}
    93ac:	e12fff1e 	bx	lr
    93b0:	ebffff76 	bl	9190 <gpio_check_event>
    93b4:	e2505000 	subs	r5, r0, #0
    93b8:	0afffff8 	beq	93a0 <gpio_check_and_clear_event+0x1c>
    93bc:	e1a00004 	mov	r0, r4
    93c0:	ebffff8c 	bl	91f8 <gpio_clear_event>
    93c4:	eafffff5 	b	93a0 <gpio_check_and_clear_event+0x1c>
    93c8:	6f697067 	svcvs	0x00697067
    93cc:	7369645f 	cmnvc	r9, #1593835520	; 0x5f000000
    93d0:	656c6261 	strbvs	r6, [ip, #-609]!	; 0x261
    93d4:	6c6c615f 	stfvse	f6, [ip], #-380	; 0xfffffe84
    93d8:	6576655f 	ldrbvs	r6, [r6, #-1375]!	; 0x55f
    93dc:	645f746e 	ldrbvs	r7, [pc], #-1134	; 93e4 <gpio_check_and_clear_event+0x60>
    93e0:	63657465 	cmnvs	r5, #1694498816	; 0x65000000
    93e4:	6e6f6974 	mcrvs	9, 3, r6, cr15, cr4, {3}
    93e8:	00000000 	andeq	r0, r0, r0
    93ec:	ff000024 			; <UNDEFINED> instruction: 0xff000024

000093f0 <gpio_disable_all_event_detection>:
    93f0:	e1a0c00d 	mov	ip, sp
    93f4:	e92dd830 	push	{r4, r5, fp, ip, lr, pc}
    93f8:	e24cb004 	sub	fp, ip, #4
    93fc:	e1a05000 	mov	r5, r0
    9400:	e3500035 	cmp	r0, #53	; 0x35
    9404:	8a00000a 	bhi	9434 <gpio_disable_all_event_detection+0x44>
    9408:	e3a04000 	mov	r4, #0
    940c:	ea000004 	b	9424 <gpio_disable_all_event_detection+0x34>
    9410:	e3a02000 	mov	r2, #0
    9414:	e1a01004 	mov	r1, r4
    9418:	e1a00005 	mov	r0, r5
    941c:	ebffff8f 	bl	9260 <gpio_set_detection>
    9420:	e2844001 	add	r4, r4, #1
    9424:	e3540005 	cmp	r4, #5
    9428:	dafffff8 	ble	9410 <gpio_disable_all_event_detection+0x20>
    942c:	e1a00005 	mov	r0, r5
    9430:	ebffff70 	bl	91f8 <gpio_clear_event>
    9434:	e24bd014 	sub	sp, fp, #20
    9438:	e89d6830 	ldm	sp, {r4, r5, fp, sp, lr}
    943c:	e12fff1e 	bx	lr
    9440:	6f697067 	svcvs	0x00697067
    9444:	7465735f 	strbtvc	r7, [r5], #-863	; 0x35f
    9448:	6c75705f 	ldclvs	0, cr7, [r5], #-380	; 0xfffffe84
    944c:	0070756c 	rsbseq	r7, r0, ip, ror #10
    9450:	ff000010 			; <UNDEFINED> instruction: 0xff000010

00009454 <gpio_set_pullup>:
    9454:	e1a0c00d 	mov	ip, sp
    9458:	e92dd800 	push	{fp, ip, lr, pc}
    945c:	e24cb004 	sub	fp, ip, #4
    9460:	e3a01002 	mov	r1, #2
    9464:	ebfffef9 	bl	9050 <gpio_set_pud>
    9468:	e24bd00c 	sub	sp, fp, #12
    946c:	e89d6800 	ldm	sp, {fp, sp, lr}
    9470:	e12fff1e 	bx	lr
    9474:	6f697067 	svcvs	0x00697067
    9478:	7465735f 	strbtvc	r7, [r5], #-863	; 0x35f
    947c:	6c75705f 	ldclvs	0, cr7, [r5], #-380	; 0xfffffe84
    9480:	776f646c 	strbvc	r6, [pc, -ip, ror #8]!
    9484:	0000006e 	andeq	r0, r0, lr, rrx
    9488:	ff000014 			; <UNDEFINED> instruction: 0xff000014

0000948c <gpio_set_pulldown>:
    948c:	e1a0c00d 	mov	ip, sp
    9490:	e92dd800 	push	{fp, ip, lr, pc}
    9494:	e24cb004 	sub	fp, ip, #4
    9498:	e3a01001 	mov	r1, #1
    949c:	ebfffeeb 	bl	9050 <gpio_set_pud>
    94a0:	e24bd00c 	sub	sp, fp, #12
    94a4:	e89d6800 	ldm	sp, {fp, sp, lr}
    94a8:	e12fff1e 	bx	lr
    94ac:	6f697067 	svcvs	0x00697067
    94b0:	7465735f 	strbtvc	r7, [r5], #-863	; 0x35f
    94b4:	6c75705f 	ldclvs	0, cr7, [r5], #-380	; 0xfffffe84
    94b8:	6e6f6e6c 	cdpvs	14, 6, cr6, cr15, cr12, {3}
    94bc:	00000065 	andeq	r0, r0, r5, rrx
    94c0:	ff000014 			; <UNDEFINED> instruction: 0xff000014

000094c4 <gpio_set_pullnone>:
    94c4:	e1a0c00d 	mov	ip, sp
    94c8:	e92dd800 	push	{fp, ip, lr, pc}
    94cc:	e24cb004 	sub	fp, ip, #4
    94d0:	e3a01000 	mov	r1, #0
    94d4:	ebfffedd 	bl	9050 <gpio_set_pud>
    94d8:	e24bd00c 	sub	sp, fp, #12
    94dc:	e89d6800 	ldm	sp, {fp, sp, lr}
    94e0:	e12fff1e 	bx	lr

000094e4 <mb>:
    94e4:	e3a00000 	mov	r0, #0
    94e8:	ee070f15 	mcr	15, 0, r0, cr7, cr5, {0}
    94ec:	ee070fd5 	mcr	15, 0, r0, cr7, cr5, {6}
    94f0:	ee070f9a 	mcr	15, 0, r0, cr7, cr10, {4}
    94f4:	ee070f95 	mcr	15, 0, r0, cr7, cr5, {4}
    94f8:	e12fff1e 	bx	lr

000094fc <dmb>:
    94fc:	ee070fba 	mcr	15, 0, r0, cr7, cr10, {5}
    9500:	e12fff1e 	bx	lr

00009504 <dsb>:
    9504:	ee070f9a 	mcr	15, 0, r0, cr7, cr10, {4}
    9508:	e12fff1e 	bx	lr

0000950c <gpio_set_function>:
    950c:	e92d41f0 	push	{r4, r5, r6, r7, r8, lr}
    9510:	e1a04000 	mov	r4, r0
    9514:	e350001f 	cmp	r0, #31
    9518:	8a000014 	bhi	9570 <gpio_set_function+0x64>
    951c:	e2015007 	and	r5, r1, #7
    9520:	e1550001 	cmp	r5, r1
    9524:	1a000013 	bne	9578 <gpio_set_function+0x6c>
    9528:	e59f7050 	ldr	r7, [pc, #80]	; 9580 <gpio_set_function+0x74>
    952c:	e0873097 	umull	r3, r7, r7, r0
    9530:	e1a071a7 	lsr	r7, r7, #3
    9534:	e1a08107 	lsl	r8, r7, #2
    9538:	e2886202 	add	r6, r8, #536870912	; 0x20000000
    953c:	e2866602 	add	r6, r6, #2097152	; 0x200000
    9540:	e1a00006 	mov	r0, r6
    9544:	ebfffdc5 	bl	8c60 <get32>
    9548:	e0887007 	add	r7, r8, r7
    954c:	e0444087 	sub	r4, r4, r7, lsl #1
    9550:	e0844084 	add	r4, r4, r4, lsl #1
    9554:	e3a01007 	mov	r1, #7
    9558:	e1c01411 	bic	r1, r0, r1, lsl r4
    955c:	e1a00006 	mov	r0, r6
    9560:	e1811415 	orr	r1, r1, r5, lsl r4
    9564:	ebfffdb5 	bl	8c40 <put32>
    9568:	e3a00000 	mov	r0, #0
    956c:	e8bd81f0 	pop	{r4, r5, r6, r7, r8, pc}
    9570:	e3e00000 	mvn	r0, #0
    9574:	e8bd81f0 	pop	{r4, r5, r6, r7, r8, pc}
    9578:	e3e00000 	mvn	r0, #0
    957c:	e8bd81f0 	pop	{r4, r5, r6, r7, r8, pc}
    9580:	cccccccd 	stclgt	12, cr12, [ip], {205}	; 0xcd

00009584 <gpio_set_output>:
    9584:	e92d4008 	push	{r3, lr}
    9588:	e3a01001 	mov	r1, #1
    958c:	ebffffde 	bl	950c <gpio_set_function>
    9590:	e8bd8008 	pop	{r3, pc}

00009594 <gpio_set_input>:
    9594:	e92d4008 	push	{r3, lr}
    9598:	e3a01000 	mov	r1, #0
    959c:	ebffffda 	bl	950c <gpio_set_function>
    95a0:	e8bd8008 	pop	{r3, pc}

000095a4 <gpio_set_off>:
    95a4:	e92d4008 	push	{r3, lr}
    95a8:	e1a03000 	mov	r3, r0
    95ac:	e350001f 	cmp	r0, #31
    95b0:	8a000005 	bhi	95cc <gpio_set_off+0x28>
    95b4:	e59f0018 	ldr	r0, [pc, #24]	; 95d4 <gpio_set_off+0x30>
    95b8:	e3a01001 	mov	r1, #1
    95bc:	e1a01311 	lsl	r1, r1, r3
    95c0:	ebfffda0 	bl	8c48 <PUT32>
    95c4:	e3a00000 	mov	r0, #0
    95c8:	e8bd8008 	pop	{r3, pc}
    95cc:	e3e00000 	mvn	r0, #0
    95d0:	e8bd8008 	pop	{r3, pc}
    95d4:	20200028 	eorcs	r0, r0, r8, lsr #32

000095d8 <gpio_set_on>:
    95d8:	e92d4008 	push	{r3, lr}
    95dc:	e1a03000 	mov	r3, r0
    95e0:	e350001f 	cmp	r0, #31
    95e4:	8a000005 	bhi	9600 <gpio_set_on+0x28>
    95e8:	e59f0018 	ldr	r0, [pc, #24]	; 9608 <gpio_set_on+0x30>
    95ec:	e3a01001 	mov	r1, #1
    95f0:	e1a01311 	lsl	r1, r1, r3
    95f4:	ebfffd93 	bl	8c48 <PUT32>
    95f8:	e3a00000 	mov	r0, #0
    95fc:	e8bd8008 	pop	{r3, pc}
    9600:	e3e00000 	mvn	r0, #0
    9604:	e8bd8008 	pop	{r3, pc}
    9608:	2020001c 	eorcs	r0, r0, ip, lsl r0

0000960c <gpio_write>:
    960c:	e92d4008 	push	{r3, lr}
    9610:	e3510000 	cmp	r1, #0
    9614:	0a000001 	beq	9620 <gpio_write+0x14>
    9618:	ebffffee 	bl	95d8 <gpio_set_on>
    961c:	e8bd8008 	pop	{r3, pc}
    9620:	ebffffdf 	bl	95a4 <gpio_set_off>
    9624:	e8bd8008 	pop	{r3, pc}

00009628 <gpio_read>:
    9628:	e92d4010 	push	{r4, lr}
    962c:	e1a04000 	mov	r4, r0
    9630:	e350001f 	cmp	r0, #31
    9634:	9a000005 	bls	9650 <gpio_read+0x28>
    9638:	e59f002c 	ldr	r0, [pc, #44]	; 966c <gpio_read+0x44>
    963c:	e59f102c 	ldr	r1, [pc, #44]	; 9670 <gpio_read+0x48>
    9640:	e59f202c 	ldr	r2, [pc, #44]	; 9674 <gpio_read+0x4c>
    9644:	e3a03037 	mov	r3, #55	; 0x37
    9648:	ebfffb71 	bl	8414 <printk>
    964c:	ebfffce0 	bl	89d4 <rpi_reboot>
    9650:	e59f0020 	ldr	r0, [pc, #32]	; 9678 <gpio_read+0x50>
    9654:	e08002a4 	add	r0, r0, r4, lsr #5
    9658:	ebfffd82 	bl	8c68 <GET32>
    965c:	e204401f 	and	r4, r4, #31
    9660:	e1a00430 	lsr	r0, r0, r4
    9664:	e2000001 	and	r0, r0, #1
    9668:	e8bd8010 	pop	{r4, pc}
    966c:	0000a0b8 	strheq	sl, [r0], -r8
    9670:	0000a0d4 	ldrdeq	sl, [r0], -r4
    9674:	0000a0ac 	andeq	sl, r0, ip, lsr #1
    9678:	20200034 	eorcs	r0, r0, r4, lsr r0

0000967c <OR_IN32>:
    967c:	e92d4038 	push	{r3, r4, r5, lr}
    9680:	e1a04000 	mov	r4, r0
    9684:	e1a05001 	mov	r5, r1
    9688:	ebfffd76 	bl	8c68 <GET32>
    968c:	e1801005 	orr	r1, r0, r5
    9690:	e1a00004 	mov	r0, r4
    9694:	ebfffd6b 	bl	8c48 <PUT32>
    9698:	e8bd8038 	pop	{r3, r4, r5, pc}

0000969c <gpio_event_detected>:
    969c:	e92d4010 	push	{r4, lr}
    96a0:	e1a04000 	mov	r4, r0
    96a4:	e350001f 	cmp	r0, #31
    96a8:	8a000006 	bhi	96c8 <gpio_event_detected+0x2c>
    96ac:	e59f001c 	ldr	r0, [pc, #28]	; 96d0 <gpio_event_detected+0x34>
    96b0:	ebfffd6c 	bl	8c68 <GET32>
    96b4:	e3a03001 	mov	r3, #1
    96b8:	e0103413 	ands	r3, r0, r3, lsl r4
    96bc:	03a00000 	moveq	r0, #0
    96c0:	13a00001 	movne	r0, #1
    96c4:	e8bd8010 	pop	{r4, pc}
    96c8:	e3e00000 	mvn	r0, #0
    96cc:	e8bd8010 	pop	{r4, pc}
    96d0:	20200040 	eorcs	r0, r0, r0, asr #32

000096d4 <gpio_event_clear>:
    96d4:	e92d4008 	push	{r3, lr}
    96d8:	e1a03000 	mov	r3, r0
    96dc:	e350001f 	cmp	r0, #31
    96e0:	8a000005 	bhi	96fc <gpio_event_clear+0x28>
    96e4:	e59f0018 	ldr	r0, [pc, #24]	; 9704 <gpio_event_clear+0x30>
    96e8:	e3a01001 	mov	r1, #1
    96ec:	e1a01311 	lsl	r1, r1, r3
    96f0:	ebfffd54 	bl	8c48 <PUT32>
    96f4:	e3a00000 	mov	r0, #0
    96f8:	e8bd8008 	pop	{r3, pc}
    96fc:	e3e00000 	mvn	r0, #0
    9700:	e8bd8008 	pop	{r3, pc}
    9704:	20200040 	eorcs	r0, r0, r0, asr #32

00009708 <gpio_int_rising_edge>:
    9708:	e92d4008 	push	{r3, lr}
    970c:	e1a03000 	mov	r3, r0
    9710:	e350001f 	cmp	r0, #31
    9714:	8a000005 	bhi	9730 <gpio_int_rising_edge+0x28>
    9718:	e59f0018 	ldr	r0, [pc, #24]	; 9738 <gpio_int_rising_edge+0x30>
    971c:	e3a01001 	mov	r1, #1
    9720:	e1a01311 	lsl	r1, r1, r3
    9724:	ebfffd47 	bl	8c48 <PUT32>
    9728:	e3a00000 	mov	r0, #0
    972c:	e8bd8008 	pop	{r3, pc}
    9730:	e3e00000 	mvn	r0, #0
    9734:	e8bd8008 	pop	{r3, pc}
    9738:	2020007c 	eorcs	r0, r0, ip, ror r0

0000973c <gpio_int_falling_edge>:
    973c:	e92d4008 	push	{r3, lr}
    9740:	e1a03000 	mov	r3, r0
    9744:	e350001f 	cmp	r0, #31
    9748:	8a000005 	bhi	9764 <gpio_int_falling_edge+0x28>
    974c:	e59f0018 	ldr	r0, [pc, #24]	; 976c <gpio_int_falling_edge+0x30>
    9750:	e3a01001 	mov	r1, #1
    9754:	e1a01311 	lsl	r1, r1, r3
    9758:	ebfffd3a 	bl	8c48 <PUT32>
    975c:	e3a00000 	mov	r0, #0
    9760:	e8bd8008 	pop	{r3, pc}
    9764:	e3e00000 	mvn	r0, #0
    9768:	e8bd8008 	pop	{r3, pc}
    976c:	20200088 	eorcs	r0, r0, r8, lsl #1

00009770 <gpio_int_init>:
    9770:	e92d4038 	push	{r3, r4, r5, lr}
    9774:	e1a04000 	mov	r4, r0
    9778:	e1a05001 	mov	r5, r1
    977c:	e59f0084 	ldr	r0, [pc, #132]	; 9808 <gpio_int_init+0x98>
    9780:	ebfffb23 	bl	8414 <printk>
    9784:	eb000026 	bl	9824 <install_int_handlers>
    9788:	ebfffd13 	bl	8bdc <dev_barrier>
    978c:	e59f0078 	ldr	r0, [pc, #120]	; 980c <gpio_int_init+0x9c>
    9790:	e3e01000 	mvn	r1, #0
    9794:	ebfffd2b 	bl	8c48 <PUT32>
    9798:	e59f0070 	ldr	r0, [pc, #112]	; 9810 <gpio_int_init+0xa0>
    979c:	e3e01000 	mvn	r1, #0
    97a0:	ebfffd28 	bl	8c48 <PUT32>
    97a4:	ebfffd0c 	bl	8bdc <dev_barrier>
    97a8:	e59f0064 	ldr	r0, [pc, #100]	; 9814 <gpio_int_init+0xa4>
    97ac:	e3a01601 	mov	r1, #1048576	; 0x100000
    97b0:	ebfffd24 	bl	8c48 <PUT32>
    97b4:	ebfffd08 	bl	8bdc <dev_barrier>
    97b8:	e59f0058 	ldr	r0, [pc, #88]	; 9818 <gpio_int_init+0xa8>
    97bc:	e1a01004 	mov	r1, r4
    97c0:	ebfffb13 	bl	8414 <printk>
    97c4:	e3550000 	cmp	r5, #0
    97c8:	1a000004 	bne	97e0 <gpio_int_init+0x70>
    97cc:	e1a00004 	mov	r0, r4
    97d0:	ebffff2d 	bl	948c <gpio_set_pulldown>
    97d4:	e1a00004 	mov	r0, r4
    97d8:	ebffffca 	bl	9708 <gpio_int_rising_edge>
    97dc:	ea000003 	b	97f0 <gpio_int_init+0x80>
    97e0:	e1a00004 	mov	r0, r4
    97e4:	ebffff1a 	bl	9454 <gpio_set_pullup>
    97e8:	e1a00004 	mov	r0, r4
    97ec:	ebffffd2 	bl	973c <gpio_int_falling_edge>
    97f0:	e59f0024 	ldr	r0, [pc, #36]	; 981c <gpio_int_init+0xac>
    97f4:	ebfffb06 	bl	8414 <printk>
    97f8:	eb000078 	bl	99e0 <system_enable_interrupts>
    97fc:	e59f001c 	ldr	r0, [pc, #28]	; 9820 <gpio_int_init+0xb0>
    9800:	ebfffb03 	bl	8414 <printk>
    9804:	e8bd8038 	pop	{r3, r4, r5, pc}
    9808:	0000a0e0 	andeq	sl, r0, r0, ror #1
    980c:	2000b21c 	andcs	fp, r0, ip, lsl r2
    9810:	2000b220 	andcs	fp, r0, r0, lsr #4
    9814:	2000b214 	andcs	fp, r0, r4, lsl r2
    9818:	0000a0fc 	strdeq	sl, [r0], -ip
    981c:	0000a124 	andeq	sl, r0, r4, lsr #2
    9820:	0000a144 	andeq	sl, r0, r4, asr #2

00009824 <install_int_handlers>:
    9824:	e59f3038 	ldr	r3, [pc, #56]	; 9864 <install_int_handlers+0x40>
    9828:	e59f0038 	ldr	r0, [pc, #56]	; 9868 <install_int_handlers+0x44>
    982c:	e0630000 	rsb	r0, r3, r0
    9830:	e1b00140 	asrs	r0, r0, #2
    9834:	012fff1e 	bxeq	lr
    9838:	e3a02000 	mov	r2, #0
    983c:	e1a03002 	mov	r3, r2
    9840:	e59fc01c 	ldr	ip, [pc, #28]	; 9864 <install_int_handlers+0x40>
    9844:	e1a01102 	lsl	r1, r2, #2
    9848:	e79c2102 	ldr	r2, [ip, r2, lsl #2]
    984c:	e5812000 	str	r2, [r1]
    9850:	e2833001 	add	r3, r3, #1
    9854:	e1a02003 	mov	r2, r3
    9858:	e1530000 	cmp	r3, r0
    985c:	1afffff8 	bne	9844 <install_int_handlers+0x20>
    9860:	e12fff1e 	bx	lr
    9864:	00009a00 	andeq	r9, r0, r0, lsl #20
    9868:	00009a50 	andeq	r9, r0, r0, asr sl

0000986c <interrupt_vector>:
    986c:	e92d4008 	push	{r3, lr}
    9870:	ebfffd52 	bl	8dc0 <int_handler>
    9874:	e8bd8008 	pop	{r3, pc}

00009878 <fast_interrupt_vector>:
    9878:	e52de004 	push	{lr}		; (str lr, [sp, #-4]!)
    987c:	e24dd00c 	sub	sp, sp, #12
    9880:	e59f301c 	ldr	r3, [pc, #28]	; 98a4 <fast_interrupt_vector+0x2c>
    9884:	e58d3000 	str	r3, [sp]
    9888:	e58d0004 	str	r0, [sp, #4]
    988c:	e59f0014 	ldr	r0, [pc, #20]	; 98a8 <fast_interrupt_vector+0x30>
    9890:	e59f1014 	ldr	r1, [pc, #20]	; 98ac <fast_interrupt_vector+0x34>
    9894:	e59f2014 	ldr	r2, [pc, #20]	; 98b0 <fast_interrupt_vector+0x38>
    9898:	e3a0301e 	mov	r3, #30
    989c:	ebfffadc 	bl	8414 <printk>
    98a0:	ebfffc4b 	bl	89d4 <rpi_reboot>
    98a4:	0000a240 	andeq	sl, r0, r0, asr #4
    98a8:	0000a1e0 	andeq	sl, r0, r0, ror #3
    98ac:	0000a21c 	andeq	sl, r0, ip, lsl r2
    98b0:	0000a150 	andeq	sl, r0, r0, asr r1

000098b4 <software_interrupt_vector>:
    98b4:	e52de004 	push	{lr}		; (str lr, [sp, #-4]!)
    98b8:	e24dd00c 	sub	sp, sp, #12
    98bc:	e59f301c 	ldr	r3, [pc, #28]	; 98e0 <software_interrupt_vector+0x2c>
    98c0:	e58d3000 	str	r3, [sp]
    98c4:	e58d0004 	str	r0, [sp, #4]
    98c8:	e59f0014 	ldr	r0, [pc, #20]	; 98e4 <software_interrupt_vector+0x30>
    98cc:	e59f1014 	ldr	r1, [pc, #20]	; 98e8 <software_interrupt_vector+0x34>
    98d0:	e59f2014 	ldr	r2, [pc, #20]	; 98ec <software_interrupt_vector+0x38>
    98d4:	e3a03021 	mov	r3, #33	; 0x21
    98d8:	ebfffacd 	bl	8414 <printk>
    98dc:	ebfffc3c 	bl	89d4 <rpi_reboot>
    98e0:	0000a248 	andeq	sl, r0, r8, asr #4
    98e4:	0000a1e0 	andeq	sl, r0, r0, ror #3
    98e8:	0000a21c 	andeq	sl, r0, ip, lsl r2
    98ec:	0000a168 	andeq	sl, r0, r8, ror #2

000098f0 <reset_vector>:
    98f0:	e52de004 	push	{lr}		; (str lr, [sp, #-4]!)
    98f4:	e24dd00c 	sub	sp, sp, #12
    98f8:	e59f301c 	ldr	r3, [pc, #28]	; 991c <reset_vector+0x2c>
    98fc:	e58d3000 	str	r3, [sp]
    9900:	e58d0004 	str	r0, [sp, #4]
    9904:	e59f0014 	ldr	r0, [pc, #20]	; 9920 <reset_vector+0x30>
    9908:	e59f1014 	ldr	r1, [pc, #20]	; 9924 <reset_vector+0x34>
    990c:	e59f2014 	ldr	r2, [pc, #20]	; 9928 <reset_vector+0x38>
    9910:	e3a03024 	mov	r3, #36	; 0x24
    9914:	ebfffabe 	bl	8414 <printk>
    9918:	ebfffc2d 	bl	89d4 <rpi_reboot>
    991c:	0000a258 	andeq	sl, r0, r8, asr r2
    9920:	0000a1e0 	andeq	sl, r0, r0, ror #3
    9924:	0000a21c 	andeq	sl, r0, ip, lsl r2
    9928:	0000a184 	andeq	sl, r0, r4, lsl #3

0000992c <undefined_instruction_vector>:
    992c:	e52de004 	push	{lr}		; (str lr, [sp, #-4]!)
    9930:	e24dd00c 	sub	sp, sp, #12
    9934:	e59f301c 	ldr	r3, [pc, #28]	; 9958 <undefined_instruction_vector+0x2c>
    9938:	e58d3000 	str	r3, [sp]
    993c:	e58d0004 	str	r0, [sp, #4]
    9940:	e59f0014 	ldr	r0, [pc, #20]	; 995c <undefined_instruction_vector+0x30>
    9944:	e59f1014 	ldr	r1, [pc, #20]	; 9960 <undefined_instruction_vector+0x34>
    9948:	e59f2014 	ldr	r2, [pc, #20]	; 9964 <undefined_instruction_vector+0x38>
    994c:	e3a03027 	mov	r3, #39	; 0x27
    9950:	ebfffaaf 	bl	8414 <printk>
    9954:	ebfffc1e 	bl	89d4 <rpi_reboot>
    9958:	0000a268 	andeq	sl, r0, r8, ror #4
    995c:	0000a1e0 	andeq	sl, r0, r0, ror #3
    9960:	0000a21c 	andeq	sl, r0, ip, lsl r2
    9964:	0000a194 	muleq	r0, r4, r1

00009968 <prefetch_abort_vector>:
    9968:	e52de004 	push	{lr}		; (str lr, [sp, #-4]!)
    996c:	e24dd00c 	sub	sp, sp, #12
    9970:	e59f301c 	ldr	r3, [pc, #28]	; 9994 <prefetch_abort_vector+0x2c>
    9974:	e58d3000 	str	r3, [sp]
    9978:	e58d0004 	str	r0, [sp, #4]
    997c:	e59f0014 	ldr	r0, [pc, #20]	; 9998 <prefetch_abort_vector+0x30>
    9980:	e59f1014 	ldr	r1, [pc, #20]	; 999c <prefetch_abort_vector+0x34>
    9984:	e59f2014 	ldr	r2, [pc, #20]	; 99a0 <prefetch_abort_vector+0x38>
    9988:	e3a0302a 	mov	r3, #42	; 0x2a
    998c:	ebfffaa0 	bl	8414 <printk>
    9990:	ebfffc0f 	bl	89d4 <rpi_reboot>
    9994:	0000a280 	andeq	sl, r0, r0, lsl #5
    9998:	0000a1e0 	andeq	sl, r0, r0, ror #3
    999c:	0000a21c 	andeq	sl, r0, ip, lsl r2
    99a0:	0000a1b4 			; <UNDEFINED> instruction: 0x0000a1b4

000099a4 <data_abort_vector>:
    99a4:	e52de004 	push	{lr}		; (str lr, [sp, #-4]!)
    99a8:	e24dd00c 	sub	sp, sp, #12
    99ac:	e59f301c 	ldr	r3, [pc, #28]	; 99d0 <data_abort_vector+0x2c>
    99b0:	e58d3000 	str	r3, [sp]
    99b4:	e58d0004 	str	r0, [sp, #4]
    99b8:	e59f0014 	ldr	r0, [pc, #20]	; 99d4 <data_abort_vector+0x30>
    99bc:	e59f1014 	ldr	r1, [pc, #20]	; 99d8 <data_abort_vector+0x34>
    99c0:	e59f2014 	ldr	r2, [pc, #20]	; 99dc <data_abort_vector+0x38>
    99c4:	e3a0302d 	mov	r3, #45	; 0x2d
    99c8:	ebfffa91 	bl	8414 <printk>
    99cc:	ebfffc00 	bl	89d4 <rpi_reboot>
    99d0:	0000a290 	muleq	r0, r0, r2
    99d4:	0000a1e0 	andeq	sl, r0, r0, ror #3
    99d8:	0000a21c 	andeq	sl, r0, ip, lsl r2
    99dc:	0000a1cc 	andeq	sl, r0, ip, asr #3

000099e0 <system_enable_interrupts>:
    99e0:	e10f0000 	mrs	r0, CPSR
    99e4:	e3c00080 	bic	r0, r0, #128	; 0x80
    99e8:	e121f000 	msr	CPSR_c, r0
    99ec:	e12fff1e 	bx	lr

000099f0 <system_disable_interrupts>:
    99f0:	e10f0000 	mrs	r0, CPSR
    99f4:	e3800080 	orr	r0, r0, #128	; 0x80
    99f8:	e121f000 	msr	CPSR_c, r0
    99fc:	e12fff1e 	bx	lr

00009a00 <_interrupt_table>:
    9a00:	e59ff030 	ldr	pc, [pc, #48]	; 9a38 <_reset_asm>
    9a04:	e59ff030 	ldr	pc, [pc, #48]	; 9a3c <_undefined_instruction_asm>
    9a08:	e59ff030 	ldr	pc, [pc, #48]	; 9a40 <_software_interrupt_asm>
    9a0c:	e59ff030 	ldr	pc, [pc, #48]	; 9a44 <_prefetch_abort_asm>
    9a10:	e59ff030 	ldr	pc, [pc, #48]	; 9a48 <_data_abort_asm>
    9a14:	e59ff01c 	ldr	pc, [pc, #28]	; 9a38 <_reset_asm>
    9a18:	e59ff02c 	ldr	pc, [pc, #44]	; 9a4c <_interrupt_asm>

00009a1c <fast_interrupt_asm>:
    9a1c:	e24ee004 	sub	lr, lr, #4
    9a20:	e52de004 	push	{lr}		; (str lr, [sp, #-4]!)
    9a24:	e92d1fff 	push	{r0, r1, r2, r3, r4, r5, r6, r7, r8, r9, sl, fp, ip}
    9a28:	e1a0000e 	mov	r0, lr
    9a2c:	ebffff91 	bl	9878 <fast_interrupt_vector>
    9a30:	e8bd1fff 	pop	{r0, r1, r2, r3, r4, r5, r6, r7, r8, r9, sl, fp, ip}
    9a34:	e8fd8000 	ldm	sp!, {pc}^

00009a38 <_reset_asm>:
    9a38:	00009a6c 	andeq	r9, r0, ip, ror #20

00009a3c <_undefined_instruction_asm>:
    9a3c:	00009a74 	andeq	r9, r0, r4, ror sl

00009a40 <_software_interrupt_asm>:
    9a40:	00009a7c 	andeq	r9, r0, ip, ror sl

00009a44 <_prefetch_abort_asm>:
    9a44:	00009a84 	andeq	r9, r0, r4, lsl #21

00009a48 <_data_abort_asm>:
    9a48:	00009a8c 	andeq	r9, r0, ip, lsl #21

00009a4c <_interrupt_asm>:
    9a4c:	00009a50 	andeq	r9, r0, r0, asr sl

00009a50 <_interrupt_table_end>:
    9a50:	e3a0d409 	mov	sp, #150994944	; 0x9000000
    9a54:	e24ee004 	sub	lr, lr, #4
    9a58:	e92d5fff 	push	{r0, r1, r2, r3, r4, r5, r6, r7, r8, r9, sl, fp, ip, lr}
    9a5c:	e1a0000e 	mov	r0, lr
    9a60:	ebffff81 	bl	986c <interrupt_vector>
    9a64:	e8bd5fff 	pop	{r0, r1, r2, r3, r4, r5, r6, r7, r8, r9, sl, fp, ip, lr}
    9a68:	e1b0f00e 	movs	pc, lr

00009a6c <reset_asm>:
    9a6c:	e24ee004 	sub	lr, lr, #4
    9a70:	ebffff9e 	bl	98f0 <reset_vector>

00009a74 <undefined_instruction_asm>:
    9a74:	e24ee004 	sub	lr, lr, #4
    9a78:	ebffffab 	bl	992c <undefined_instruction_vector>

00009a7c <software_interrupt_asm>:
    9a7c:	e24ee004 	sub	lr, lr, #4
    9a80:	ebffff8b 	bl	98b4 <software_interrupt_vector>

00009a84 <prefetch_abort_asm>:
    9a84:	e24ee004 	sub	lr, lr, #4
    9a88:	ebffffb6 	bl	9968 <prefetch_abort_vector>

00009a8c <data_abort_asm>:
    9a8c:	e24ee004 	sub	lr, lr, #4
    9a90:	ebffffc3 	bl	99a4 <data_abort_vector>

Disassembly of section .rodata:

00009a94 <pi_done>:
    9a94:	52204950 	eorpl	r4, r0, #80, 18	; 0x140000
    9a98:	4f4f4245 	svcmi	0x004f4245
    9a9c:	21212154 	teqcs	r1, r4, asr r1
    9aa0:	00000000 	andeq	r0, r0, r0

00009aa4 <__FUNCTION__.3864>:
    9aa4:	64616572 	strbtvs	r6, [r1], #-1394	; 0x572
    9aa8:	4c52435f 	mrrcmi	3, 5, r4, r2, cr15
    9aac:	696c5f46 	stmdbvs	ip!, {r1, r2, r6, r8, r9, sl, fp, ip, lr}^
    9ab0:	0000656e 	andeq	r6, r0, lr, ror #10

00009ab4 <__FUNCTION__.3855>:
    9ab4:	64616572 	strbtvs	r6, [r1], #-1394	; 0x572
    9ab8:	656e696c 	strbvs	r6, [lr, #-2412]!	; 0x96c
    9abc:	00000000 	andeq	r0, r0, r0
    9ac0:	6f686365 	svcvs	0x00686365
    9ac4:	00000020 	andeq	r0, r0, r0, lsr #32
    9ac8:	000a7325 	andeq	r7, sl, r5, lsr #6
    9acc:	6f626572 	svcvs	0x00626572
    9ad0:	0000746f 	andeq	r7, r0, pc, ror #8
    9ad4:	006e7572 	rsbeq	r7, lr, r2, ror r5
    9ad8:	00707365 	rsbseq	r7, r0, r5, ror #6
    9adc:	636c6557 	cmnvs	ip, #364904448	; 0x15c00000
    9ae0:	21656d6f 	cmncs	r5, pc, ror #26
    9ae4:	0000000a 	andeq	r0, r0, sl
    9ae8:	746e6573 	strbtvc	r6, [lr], #-1395	; 0x573
    9aec:	73253c20 	teqvc	r5, #32, 24	; 0x2000
    9af0:	3c202c3e 	stccc	12, cr2, [r0], #-248	; 0xffffff08
    9af4:	203e6425 	eorscs	r6, lr, r5, lsr #8
    9af8:	65747962 	ldrbvs	r7, [r4, #-2402]!	; 0x962
    9afc:	00000a73 	andeq	r0, r0, r3, ror sl
    9b00:	74697277 	strbtvc	r7, [r9], #-631	; 0x277
    9b04:	0a6e6574 	beq	1ba30dc <__bss_end__+0x1b98a3c>
    9b08:	00000000 	andeq	r0, r0, r0
    9b0c:	65636572 	strbvs	r6, [r3, #-1394]!	; 0x572
    9b10:	64657669 	strbtvs	r7, [r5], #-1641	; 0x669
    9b14:	73253c20 	teqvc	r5, #32, 24	; 0x2000
    9b18:	3c202c3e 	stccc	12, cr2, [r0], #-248	; 0xffffff08
    9b1c:	203e6425 	eorscs	r6, lr, r5, lsr #8
    9b20:	65747962 	ldrbvs	r7, [r4, #-2402]!	; 0x962
    9b24:	00000a73 	andeq	r0, r0, r3, ror sl
    9b28:	494e4150 	stmdbmi	lr, {r4, r6, r8, lr}^
    9b2c:	73253a43 	teqvc	r5, #274432	; 0x43000
    9b30:	3a73253a 	bcc	1cd3020 <__bss_end__+0x1cc8980>
    9b34:	733a6425 	teqvc	sl, #620756992	; 0x25000000
    9b38:	20657a69 	rsbcs	r7, r5, r9, ror #20
    9b3c:	206f6f74 	rsbcs	r6, pc, r4, ror pc	; <UNPREDICTABLE>
    9b40:	6c616d73 	stclvs	13, cr6, [r1], #-460	; 0xfffffe34
    9b44:	000a0a6c 	andeq	r0, sl, ip, ror #20
    9b48:	732d6970 	teqvc	sp, #112, 18	; 0x1c0000
    9b4c:	6c6c6568 	cfstr64vs	mvdx6, [ip], #-416	; 0xfffffe60
    9b50:	0000632e 	andeq	r6, r0, lr, lsr #6

00009b54 <crc32_tab>:
    9b54:	00000000 	andeq	r0, r0, r0
    9b58:	77073096 			; <UNDEFINED> instruction: 0x77073096
    9b5c:	ee0e612c 	adfep	f6, f6, #4.0
    9b60:	990951ba 	stmdbls	r9, {r1, r3, r4, r5, r7, r8, ip, lr}
    9b64:	076dc419 			; <UNDEFINED> instruction: 0x076dc419
    9b68:	706af48f 	rsbvc	pc, sl, pc, lsl #9
    9b6c:	e963a535 	stmdb	r3!, {r0, r2, r4, r5, r8, sl, sp, pc}^
    9b70:	9e6495a3 	cdpls	5, 6, cr9, cr4, cr3, {5}
    9b74:	0edb8832 	mrceq	8, 6, r8, cr11, cr2, {1}
    9b78:	79dcb8a4 	ldmibvc	ip, {r2, r5, r7, fp, ip, sp, pc}^
    9b7c:	e0d5e91e 	sbcs	lr, r5, lr, lsl r9
    9b80:	97d2d988 	ldrbls	sp, [r2, r8, lsl #19]
    9b84:	09b64c2b 	ldmibeq	r6!, {r0, r1, r3, r5, sl, fp, lr}
    9b88:	7eb17cbd 	mrcvc	12, 5, r7, cr1, cr13, {5}
    9b8c:	e7b82d07 	ldr	r2, [r8, r7, lsl #26]!
    9b90:	90bf1d91 	umlalsls	r1, pc, r1, sp	; <UNPREDICTABLE>
    9b94:	1db71064 	ldcne	0, cr1, [r7, #400]!	; 0x190
    9b98:	6ab020f2 	bvs	fec11f68 <__bss_end__+0xfec078c8>
    9b9c:	f3b97148 	vceq.i32	<illegal reg q3.5>, q4, #0
    9ba0:	84be41de 	ldrthi	r4, [lr], #478	; 0x1de
    9ba4:	1adad47d 	bne	ff6beda0 <__bss_end__+0xff6b4700>
    9ba8:	6ddde4eb 	cfldrdvs	mvd14, [sp, #940]	; 0x3ac
    9bac:	f4d4b551 			; <UNDEFINED> instruction: 0xf4d4b551
    9bb0:	83d385c7 	bicshi	r8, r3, #834666496	; 0x31c00000
    9bb4:	136c9856 	cmnne	ip, #5636096	; 0x560000
    9bb8:	646ba8c0 	strbtvs	sl, [fp], #-2240	; 0x8c0
    9bbc:	fd62f97a 	stc2l	9, cr15, [r2, #-488]!	; 0xfffffe18
    9bc0:	8a65c9ec 	bhi	197c378 <__bss_end__+0x1971cd8>
    9bc4:	14015c4f 	strne	r5, [r1], #-3151	; 0xc4f
    9bc8:	63066cd9 	movwvs	r6, #27865	; 0x6cd9
    9bcc:	fa0f3d63 	blx	3d9160 <__bss_end__+0x3ceac0>
    9bd0:	8d080df5 	stchi	13, cr0, [r8, #-980]	; 0xfffffc2c
    9bd4:	3b6e20c8 	blcc	1b91efc <__bss_end__+0x1b8785c>
    9bd8:	4c69105e 	stclmi	0, cr1, [r9], #-376	; 0xfffffe88
    9bdc:	d56041e4 	strble	r4, [r0, #-484]!	; 0x1e4
    9be0:	a2677172 	rsbge	r7, r7, #-2147483620	; 0x8000001c
    9be4:	3c03e4d1 	cfstrscc	mvf14, [r3], {209}	; 0xd1
    9be8:	4b04d447 	blmi	13ed0c <__bss_end__+0x13466c>
    9bec:	d20d85fd 	andle	r8, sp, #1061158912	; 0x3f400000
    9bf0:	a50ab56b 	strge	fp, [sl, #-1387]	; 0x56b
    9bf4:	35b5a8fa 	ldrcc	sl, [r5, #2298]!	; 0x8fa
    9bf8:	42b2986c 	adcsmi	r9, r2, #108, 16	; 0x6c0000
    9bfc:	dbbbc9d6 	blle	feefc35c <__bss_end__+0xfeef1cbc>
    9c00:	acbcf940 	ldcge	9, cr15, [ip], #256	; 0x100
    9c04:	32d86ce3 	sbcscc	r6, r8, #58112	; 0xe300
    9c08:	45df5c75 	ldrbmi	r5, [pc, #3189]	; a885 <__bss_end__+0x1e5>
    9c0c:	dcd60dcf 	ldclle	13, cr0, [r6], {207}	; 0xcf
    9c10:	abd13d59 	blge	ff45917c <__bss_end__+0xff44eadc>
    9c14:	26d930ac 	ldrbcs	r3, [r9], ip, lsr #1
    9c18:	51de003a 	bicspl	r0, lr, sl, lsr r0
    9c1c:	c8d75180 	ldmgt	r7, {r7, r8, ip, lr}^
    9c20:	bfd06116 	svclt	0x00d06116
    9c24:	21b4f4b5 			; <UNDEFINED> instruction: 0x21b4f4b5
    9c28:	56b3c423 	ldrtpl	ip, [r3], r3, lsr #8
    9c2c:	cfba9599 	svcgt	0x00ba9599
    9c30:	b8bda50f 	poplt	{r0, r1, r2, r3, r8, sl, sp, pc}
    9c34:	2802b89e 	stmdacs	r2, {r1, r2, r3, r4, r7, fp, ip, sp, pc}
    9c38:	5f058808 	svcpl	0x00058808
    9c3c:	c60cd9b2 			; <UNDEFINED> instruction: 0xc60cd9b2
    9c40:	b10be924 	tstlt	fp, r4, lsr #18
    9c44:	2f6f7c87 	svccs	0x006f7c87
    9c48:	58684c11 	stmdapl	r8!, {r0, r4, sl, fp, lr}^
    9c4c:	c1611dab 	cmngt	r1, fp, lsr #27
    9c50:	b6662d3d 			; <UNDEFINED> instruction: 0xb6662d3d
    9c54:	76dc4190 			; <UNDEFINED> instruction: 0x76dc4190
    9c58:	01db7106 	bicseq	r7, fp, r6, lsl #2
    9c5c:	98d220bc 	ldmls	r2, {r2, r3, r4, r5, r7, sp}^
    9c60:	efd5102a 	svc	0x00d5102a
    9c64:	71b18589 			; <UNDEFINED> instruction: 0x71b18589
    9c68:	06b6b51f 	ssateq	fp, #23, pc, lsl #10	; <UNPREDICTABLE>
    9c6c:	9fbfe4a5 	svcls	0x00bfe4a5
    9c70:	e8b8d433 	ldm	r8!, {r0, r1, r4, r5, sl, ip, lr, pc}
    9c74:	7807c9a2 	stmdavc	r7, {r1, r5, r7, r8, fp, lr, pc}
    9c78:	0f00f934 	svceq	0x0000f934
    9c7c:	9609a88e 	strls	sl, [r9], -lr, lsl #17
    9c80:	e10e9818 	tst	lr, r8, lsl r8
    9c84:	7f6a0dbb 	svcvc	0x006a0dbb
    9c88:	086d3d2d 	stmdaeq	sp!, {r0, r2, r3, r5, r8, sl, fp, ip, sp}^
    9c8c:	91646c97 			; <UNDEFINED> instruction: 0x91646c97
    9c90:	e6635c01 	strbt	r5, [r3], -r1, lsl #24
    9c94:	6b6b51f4 	blvs	1ade46c <__bss_end__+0x1ad3dcc>
    9c98:	1c6c6162 	stfnee	f6, [ip], #-392	; 0xfffffe78
    9c9c:	856530d8 	strbhi	r3, [r5, #-216]!	; 0xd8
    9ca0:	f262004e 	vhadd.s32	q8, q1, q7
    9ca4:	6c0695ed 	cfstr32vs	mvfx9, [r6], {237}	; 0xed
    9ca8:	1b01a57b 	blne	7329c <__bss_end__+0x68bfc>
    9cac:	8208f4c1 	andhi	pc, r8, #-1056964608	; 0xc1000000
    9cb0:	f50fc457 			; <UNDEFINED> instruction: 0xf50fc457
    9cb4:	65b0d9c6 	ldrvs	sp, [r0, #2502]!	; 0x9c6
    9cb8:	12b7e950 	adcsne	lr, r7, #80, 18	; 0x140000
    9cbc:	8bbeb8ea 	blhi	fefb806c <__bss_end__+0xfefad9cc>
    9cc0:	fcb9887c 	ldc2	8, cr8, [r9], #496	; 0x1f0
    9cc4:	62dd1ddf 	sbcsvs	r1, sp, #14272	; 0x37c0
    9cc8:	15da2d49 	ldrbne	r2, [sl, #3401]	; 0xd49
    9ccc:	8cd37cf3 	ldclhi	12, cr7, [r3], {243}	; 0xf3
    9cd0:	fbd44c65 	blx	ff51ce6e <__bss_end__+0xff5127ce>
    9cd4:	4db26158 	ldfmis	f6, [r2, #352]!	; 0x160
    9cd8:	3ab551ce 	bcc	fed5e418 <__bss_end__+0xfed53d78>
    9cdc:	a3bc0074 			; <UNDEFINED> instruction: 0xa3bc0074
    9ce0:	d4bb30e2 	ldrtle	r3, [fp], #226	; 0xe2
    9ce4:	4adfa541 	bmi	ff7f31f0 <__bss_end__+0xff7e8b50>
    9ce8:	3dd895d7 	cfldr64cc	mvdx9, [r8, #860]	; 0x35c
    9cec:	a4d1c46d 	ldrbge	ip, [r1], #1133	; 0x46d
    9cf0:	d3d6f4fb 	bicsle	pc, r6, #-83886080	; 0xfb000000
    9cf4:	4369e96a 	cmnmi	r9, #1736704	; 0x1a8000
    9cf8:	346ed9fc 	strbtcc	sp, [lr], #-2556	; 0x9fc
    9cfc:	ad678846 	stclge	8, cr8, [r7, #-280]!	; 0xfffffee8
    9d00:	da60b8d0 	ble	1838048 <__bss_end__+0x182d9a8>
    9d04:	44042d73 	strmi	r2, [r4], #-3443	; 0xd73
    9d08:	33031de5 	movwcc	r1, #15845	; 0x3de5
    9d0c:	aa0a4c5f 	bge	29ce90 <__bss_end__+0x2927f0>
    9d10:	dd0d7cc9 	stcle	12, cr7, [sp, #-804]	; 0xfffffcdc
    9d14:	5005713c 	andpl	r7, r5, ip, lsr r1
    9d18:	270241aa 	strcs	r4, [r2, -sl, lsr #3]
    9d1c:	be0b1010 	mcrlt	0, 0, r1, cr11, cr0, {0}
    9d20:	c90c2086 	stmdbgt	ip, {r1, r2, r7, sp}
    9d24:	5768b525 	strbpl	fp, [r8, -r5, lsr #10]!
    9d28:	206f85b3 	strhtcs	r8, [pc], #-83
    9d2c:	b966d409 	stmdblt	r6!, {r0, r3, sl, ip, lr, pc}^
    9d30:	ce61e49f 	mcrgt	4, 3, lr, cr1, cr15, {4}
    9d34:	5edef90e 	cdppl	9, 13, cr15, cr14, cr14, {0}
    9d38:	29d9c998 	ldmibcs	r9, {r3, r4, r7, r8, fp, lr, pc}^
    9d3c:	b0d09822 	sbcslt	r9, r0, r2, lsr #16
    9d40:	c7d7a8b4 			; <UNDEFINED> instruction: 0xc7d7a8b4
    9d44:	59b33d17 	ldmibpl	r3!, {r0, r1, r2, r4, r8, sl, fp, ip, sp}
    9d48:	2eb40d81 	cdpcs	13, 11, cr0, cr4, cr1, {4}
    9d4c:	b7bd5c3b 			; <UNDEFINED> instruction: 0xb7bd5c3b
    9d50:	c0ba6cad 	adcsgt	r6, sl, sp, lsr #25
    9d54:	edb88320 	ldc	3, cr8, [r8, #128]!	; 0x80
    9d58:	9abfb3b6 	bls	feff6c38 <__bss_end__+0xfefec598>
    9d5c:	03b6e20c 			; <UNDEFINED> instruction: 0x03b6e20c
    9d60:	74b1d29a 	ldrtvc	sp, [r1], #666	; 0x29a
    9d64:	ead54739 	b	ff55ba50 <__bss_end__+0xff5513b0>
    9d68:	9dd277af 	ldclls	7, cr7, [r2, #700]	; 0x2bc
    9d6c:	04db2615 	ldrbeq	r2, [fp], #1557	; 0x615
    9d70:	73dc1683 	bicsvc	r1, ip, #137363456	; 0x8300000
    9d74:	e3630b12 	cmn	r3, #18432	; 0x4800
    9d78:	94643b84 	strbtls	r3, [r4], #-2948	; 0xb84
    9d7c:	0d6d6a3e 	vpusheq	{s13-s74}
    9d80:	7a6a5aa8 	bvc	1aa0828 <__bss_end__+0x1a96188>
    9d84:	e40ecf0b 	str	ip, [lr], #-3851	; 0xf0b
    9d88:	9309ff9d 	movwls	pc, #40861	; 0x9f9d	; <UNPREDICTABLE>
    9d8c:	0a00ae27 	beq	35630 <__bss_end__+0x2af90>
    9d90:	7d079eb1 	stcvc	14, cr9, [r7, #-708]	; 0xfffffd3c
    9d94:	f00f9344 			; <UNDEFINED> instruction: 0xf00f9344
    9d98:	8708a3d2 			; <UNDEFINED> instruction: 0x8708a3d2
    9d9c:	1e01f268 	cdpne	2, 0, cr15, cr1, cr8, {3}
    9da0:	6906c2fe 	stmdbvs	r6, {r1, r2, r3, r4, r5, r6, r7, r9, lr, pc}
    9da4:	f762575d 			; <UNDEFINED> instruction: 0xf762575d
    9da8:	806567cb 	rsbhi	r6, r5, fp, asr #15
    9dac:	196c3671 	stmdbne	ip!, {r0, r4, r5, r6, r9, sl, ip, sp}^
    9db0:	6e6b06e7 	cdpvs	6, 6, cr0, cr11, cr7, {7}
    9db4:	fed41b76 	mrc2	11, 6, r1, cr4, cr6, {3}
    9db8:	89d32be0 	ldmibhi	r3, {r5, r6, r7, r8, r9, fp, sp}^
    9dbc:	10da7a5a 	sbcsne	r7, sl, sl, asr sl
    9dc0:	67dd4acc 	ldrbvs	r4, [sp, ip, asr #21]
    9dc4:	f9b9df6f 			; <UNDEFINED> instruction: 0xf9b9df6f
    9dc8:	8ebeeff9 	mrchi	15, 5, lr, cr14, cr9, {7}
    9dcc:	17b7be43 	ldrne	fp, [r7, r3, asr #28]!
    9dd0:	60b08ed5 	ldrsbtvs	r8, [r0], r5
    9dd4:	d6d6a3e8 	ldrble	sl, [r6], r8, ror #7
    9dd8:	a1d1937e 	bicsge	r9, r1, lr, ror r3
    9ddc:	38d8c2c4 	ldmcc	r8, {r2, r6, r7, r9, lr, pc}^
    9de0:	4fdff252 	svcmi	0x00dff252
    9de4:	d1bb67f1 			; <UNDEFINED> instruction: 0xd1bb67f1
    9de8:	a6bc5767 	ldrtge	r5, [ip], r7, ror #14
    9dec:	3fb506dd 	svccc	0x00b506dd
    9df0:	48b2364b 	ldmmi	r2!, {r0, r1, r3, r6, r9, sl, ip, sp}
    9df4:	d80d2bda 	stmdale	sp, {r1, r3, r4, r6, r7, r8, r9, fp, sp}
    9df8:	af0a1b4c 	svcge	0x000a1b4c
    9dfc:	36034af6 			; <UNDEFINED> instruction: 0x36034af6
    9e00:	41047a60 	tstmi	r4, r0, ror #20
    9e04:	df60efc3 	svcle	0x0060efc3
    9e08:	a867df55 	stmdage	r7!, {r0, r2, r4, r6, r8, r9, sl, fp, ip, lr, pc}^
    9e0c:	316e8eef 	cmncc	lr, pc, ror #29
    9e10:	4669be79 			; <UNDEFINED> instruction: 0x4669be79
    9e14:	cb61b38c 	blgt	1876c4c <__bss_end__+0x186c5ac>
    9e18:	bc66831a 	stcllt	3, cr8, [r6], #-104	; 0xffffff98
    9e1c:	256fd2a0 	strbcs	sp, [pc, #-672]!	; 9b84 <crc32_tab+0x30>
    9e20:	5268e236 	rsbpl	lr, r8, #1610612739	; 0x60000003
    9e24:	cc0c7795 	stcgt	7, cr7, [ip], {149}	; 0x95
    9e28:	bb0b4703 	bllt	2dba3c <__bss_end__+0x2d139c>
    9e2c:	220216b9 	andcs	r1, r2, #193986560	; 0xb900000
    9e30:	5505262f 	strpl	r2, [r5, #-1583]	; 0x62f
    9e34:	c5ba3bbe 	ldrgt	r3, [sl, #3006]!	; 0xbbe
    9e38:	b2bd0b28 	adcslt	r0, sp, #40, 22	; 0xa000
    9e3c:	2bb45a92 	blcs	fed2088c <__bss_end__+0xfed161ec>
    9e40:	5cb36a04 	vldmiapl	r3!, {s12-s15}
    9e44:	c2d7ffa7 	sbcsgt	pc, r7, #668	; 0x29c
    9e48:	b5d0cf31 	ldrblt	ip, [r0, #3889]	; 0xf31
    9e4c:	2cd99e8b 	ldclcs	14, cr9, [r9], {139}	; 0x8b
    9e50:	5bdeae1d 	blpl	ff7b56cc <__bss_end__+0xff7ab02c>
    9e54:	9b64c2b0 	blls	193a91c <__bss_end__+0x193027c>
    9e58:	ec63f226 	sfm	f7, 3, [r3], #-152	; 0xffffff68
    9e5c:	756aa39c 	strbvc	sl, [sl, #-924]!	; 0x39c
    9e60:	026d930a 	rsbeq	r9, sp, #671088640	; 0x28000000
    9e64:	9c0906a9 	stcls	6, cr0, [r9], {169}	; 0xa9
    9e68:	eb0e363f 	bl	39776c <__bss_end__+0x38d0cc>
    9e6c:	72076785 	andvc	r6, r7, #34865152	; 0x2140000
    9e70:	05005713 	streq	r5, [r0, #-1811]	; 0x713
    9e74:	95bf4a82 	ldrls	r4, [pc, #2690]!	; a8fe <__bss_end__+0x25e>
    9e78:	e2b87a14 	adcs	r7, r8, #20, 20	; 0x14000
    9e7c:	7bb12bae 	blvc	fec54d3c <__bss_end__+0xfec4a69c>
    9e80:	0cb61b38 	vldmiaeq	r6!, {d1-d28}
    9e84:	92d28e9b 	sbcsls	r8, r2, #2480	; 0x9b0
    9e88:	e5d5be0d 	ldrb	fp, [r5, #3597]	; 0xe0d
    9e8c:	7cdcefb7 	ldclvc	15, cr14, [ip], {183}	; 0xb7
    9e90:	0bdbdf21 	bleq	ff701b1c <__bss_end__+0xff6f747c>
    9e94:	86d3d2d4 			; <UNDEFINED> instruction: 0x86d3d2d4
    9e98:	f1d4e242 			; <UNDEFINED> instruction: 0xf1d4e242
    9e9c:	68ddb3f8 	ldmvs	sp, {r3, r4, r5, r6, r7, r8, r9, ip, sp, pc}^
    9ea0:	1fda836e 	svcne	0x00da836e
    9ea4:	81be16cd 			; <UNDEFINED> instruction: 0x81be16cd
    9ea8:	f6b9265b 			; <UNDEFINED> instruction: 0xf6b9265b
    9eac:	6fb077e1 	svcvs	0x00b077e1
    9eb0:	18b74777 	ldmne	r7!, {r0, r1, r2, r4, r5, r6, r8, r9, sl, lr}
    9eb4:	88085ae6 	stmdahi	r8, {r1, r2, r5, r6, r7, r9, fp, ip, lr}
    9eb8:	ff0f6a70 			; <UNDEFINED> instruction: 0xff0f6a70
    9ebc:	66063bca 	strvs	r3, [r6], -sl, asr #23
    9ec0:	11010b5c 	tstne	r1, ip, asr fp
    9ec4:	8f659eff 	svchi	0x00659eff
    9ec8:	f862ae69 			; <UNDEFINED> instruction: 0xf862ae69
    9ecc:	616bffd3 	ldrdvs	pc, [fp, #-243]!	; 0xffffff0d
    9ed0:	166ccf45 	strbtne	ip, [ip], -r5, asr #30
    9ed4:	a00ae278 	andge	lr, sl, r8, ror r2
    9ed8:	d70dd2ee 	strle	sp, [sp, -lr, ror #5]
    9edc:	4e048354 	mcrmi	3, 0, r8, cr4, cr4, {2}
    9ee0:	3903b3c2 	stmdbcc	r3, {r1, r6, r7, r8, r9, ip, sp, pc}
    9ee4:	a7672661 	strbge	r2, [r7, -r1, ror #12]!
    9ee8:	d06016f7 	strdle	r1, [r0], #-103	; 0xffffff99	; <UNPREDICTABLE>
    9eec:	4969474d 	stmdbmi	r9!, {r0, r2, r3, r6, r8, r9, sl, lr}^
    9ef0:	3e6e77db 	mcrcc	7, 3, r7, cr14, cr11, {6}
    9ef4:	aed16a4a 	vfnmage.f32	s13, s2, s20
    9ef8:	d9d65adc 	ldmible	r6, {r2, r3, r4, r6, r7, r9, fp, ip, lr}^
    9efc:	40df0b66 	sbcsmi	r0, pc, r6, ror #22
    9f00:	37d83bf0 			; <UNDEFINED> instruction: 0x37d83bf0
    9f04:	a9bcae53 	ldmibge	ip!, {r0, r1, r4, r6, r9, sl, fp, sp, pc}
    9f08:	debb9ec5 	cdple	14, 11, cr9, cr11, cr5, {6}
    9f0c:	47b2cf7f 			; <UNDEFINED> instruction: 0x47b2cf7f
    9f10:	30b5ffe9 	adcscc	pc, r5, r9, ror #31
    9f14:	bdbdf21c 	lfmlt	f7, 1, [sp, #112]!	; 0x70
    9f18:	cabac28a 	bgt	feeba948 <__bss_end__+0xfeeb02a8>
    9f1c:	53b39330 			; <UNDEFINED> instruction: 0x53b39330
    9f20:	24b4a3a6 	ldrtcs	sl, [r4], #934	; 0x3a6
    9f24:	bad03605 	blt	ff417740 <__bss_end__+0xff40d0a0>
    9f28:	cdd70693 	ldclgt	6, cr0, [r7, #588]	; 0x24c
    9f2c:	54de5729 	ldrbpl	r5, [lr], #1833	; 0x729
    9f30:	23d967bf 	bicscs	r6, r9, #50069504	; 0x2fc0000
    9f34:	b3667a2e 	cmnlt	r6, #188416	; 0x2e000
    9f38:	c4614ab8 	strbtgt	r4, [r1], #-2744	; 0xab8
    9f3c:	5d681b02 	vstmdbpl	r8!, {d17}
    9f40:	2a6f2b94 	bcs	1bd4d98 <__bss_end__+0x1bca6f8>
    9f44:	b40bbe37 	strlt	fp, [fp], #-3639	; 0xe37
    9f48:	c30c8ea1 	movwgt	r8, #52897	; 0xcea1
    9f4c:	5a05df1b 	bpl	181bc0 <__bss_end__+0x177520>
    9f50:	2d02ef8d 	stccs	15, cr14, [r2, #-564]	; 0xfffffdcc

00009f54 <__FUNCTION__.3901>:
    9f54:	74696d65 	strbtvc	r6, [r9], #-3429	; 0xd65
    9f58:	00000000 	andeq	r0, r0, r0

00009f5c <__FUNCTION__.3916>:
    9f5c:	705f6176 	subsvc	r6, pc, r6, ror r1	; <UNPREDICTABLE>
    9f60:	746e6972 	strbtvc	r6, [lr], #-2418	; 0x972
    9f64:	0000006b 	andeq	r0, r0, fp, rrx
    9f68:	494e4150 	stmdbmi	lr, {r4, r6, r8, lr}^
    9f6c:	73253a43 	teqvc	r5, #274432	; 0x43000
    9f70:	3a73253a 	bcc	1cd3460 <__bss_end__+0x1cc8dc0>
    9f74:	303a6425 	eorscc	r6, sl, r5, lsr #8
    9f78:	0000000a 	andeq	r0, r0, sl
    9f7c:	34317363 	ldrtcc	r7, [r1], #-867	; 0x363
    9f80:	702d6530 	eorvc	r6, sp, r0, lsr r5
    9f84:	746e6972 	strbtvc	r6, [lr], #-2418	; 0x972
    9f88:	00632e66 	rsbeq	r2, r3, r6, ror #28
    9f8c:	33323130 	teqcc	r2, #48, 2
    9f90:	37363534 			; <UNDEFINED> instruction: 0x37363534
    9f94:	00003938 	andeq	r3, r0, r8, lsr r9
    9f98:	33323130 	teqcc	r2, #48, 2
    9f9c:	37363534 			; <UNDEFINED> instruction: 0x37363534
    9fa0:	62613938 	rsbvs	r3, r1, #56, 18	; 0xe0000
    9fa4:	66656463 	strbtvs	r6, [r5], -r3, ror #8
    9fa8:	00000000 	andeq	r0, r0, r0
    9fac:	00003130 	andeq	r3, r0, r0, lsr r1
    9fb0:	494e4150 	stmdbmi	lr, {r4, r6, r8, lr}^
    9fb4:	73253a43 	teqvc	r5, #274432	; 0x43000
    9fb8:	3a73253a 	bcc	1cd34a8 <__bss_end__+0x1cc8e08>
    9fbc:	773a6425 	ldrvc	r6, [sl, -r5, lsr #8]!
    9fc0:	68746469 	ldmdavs	r4!, {r0, r3, r5, r6, sl, sp, lr}^
    9fc4:	33203c20 	teqcc	r0, #32, 24	; 0x2000
    9fc8:	00000a32 	andeq	r0, r0, r2, lsr sl
    9fcc:	494e4150 	stmdbmi	lr, {r4, r6, r8, lr}^
    9fd0:	73253a43 	teqvc	r5, #274432	; 0x43000
    9fd4:	3a73253a 	bcc	1cd34c4 <__bss_end__+0x1cc8e24>
    9fd8:	663a6425 	ldrtvs	r6, [sl], -r5, lsr #8
    9fdc:	74616f6c 	strbtvc	r6, [r1], #-3948	; 0xf6c
    9fe0:	746f6e20 	strbtvc	r6, [pc], #-3616	; 9fe8 <__FUNCTION__.3916+0x8c>
    9fe4:	616e6520 	cmnvs	lr, r0, lsr #10
    9fe8:	64656c62 	strbtvs	r6, [r5], #-3170	; 0xc62
    9fec:	0a212121 	beq	852478 <__bss_end__+0x847dd8>
    9ff0:	00000000 	andeq	r0, r0, r0
    9ff4:	494e4150 	stmdbmi	lr, {r4, r6, r8, lr}^
    9ff8:	73253a43 	teqvc	r5, #274432	; 0x43000
    9ffc:	3a73253a 	bcc	1cd34ec <__bss_end__+0x1cc8e4c>
    a000:	703a6425 	eorsvc	r6, sl, r5, lsr #8
    a004:	746e6972 	strbtvc	r6, [lr], #-2418	; 0x972
    a008:	6e203a6b 	vnmulvs.f32	s6, s0, s23
    a00c:	6820746f 	stmdavs	r0!, {r0, r1, r2, r3, r5, r6, sl, ip, sp, lr}
    a010:	6c646e61 	stclvs	14, cr6, [r4], #-388	; 0xfffffe7c
    a014:	20676e69 	rsbcs	r6, r7, r9, ror #28
    a018:	63657073 	cmnvs	r5, #115	; 0x73
    a01c:	65696669 	strbvs	r6, [r9, #-1641]!	; 0x669
    a020:	25272072 	strcs	r2, [r7, #-114]!	; 0x72
    a024:	0a0a2763 	beq	293db8 <__bss_end__+0x289718>
    a028:	00000000 	andeq	r0, r0, r0
    a02c:	4e41503c 	mcrmi	0, 2, r5, cr1, cr12, {1}
    a030:	3a3e4349 	bcc	f9ad5c <__bss_end__+0xf906bc>
    a034:	00000000 	andeq	r0, r0, r0
    a038:	253a7325 	ldrcs	r7, [sl, #-805]!	; 0x325
    a03c:	50203a64 	eorpl	r3, r0, r4, ror #20
    a040:	43494e41 	movtmi	r4, #40513	; 0x9e41
    a044:	4e415020 	cdpmi	0, 4, cr5, cr1, cr0, {1}
    a048:	50204349 	eorpl	r4, r0, r9, asr #6
    a04c:	43494e41 	movtmi	r4, #40513	; 0x9e41
    a050:	7325203a 	teqvc	r5, #58	; 0x3a
    a054:	0000000a 	andeq	r0, r0, sl

0000a058 <__FUNCTION__.3852>:
    a058:	5f697072 	svcpl	0x00697072
    a05c:	6f626572 	svcvs	0x00626572
    a060:	0000746f 	andeq	r7, r0, pc, ror #8
    a064:	494e4150 	stmdbmi	lr, {r4, r6, r8, lr}^
    a068:	73253a43 	teqvc	r5, #274432	; 0x43000
    a06c:	3a73253a 	bcc	1cd355c <__bss_end__+0x1cc8ebc>
    a070:	613a6425 	teqvs	sl, r5, lsr #8
    a074:	73755f74 	cmnvc	r5, #116, 30	; 0x1d0
    a078:	6c5f7265 	lfmvs	f7, 2, [pc], {101}	; 0x65
    a07c:	6c657665 	stclvs	6, cr7, [r5], #-404	; 0xfffffe6c
    a080:	000a2928 	andeq	r2, sl, r8, lsr #18
    a084:	34317363 	ldrtcc	r7, [r1], #-867	; 0x363
    a088:	722d6530 	eorvc	r6, sp, #48, 10	; 0xc000000
    a08c:	6f6f6265 	svcvs	0x006f6265
    a090:	00632e74 	rsbeq	r2, r3, r4, ror lr
    a094:	2020004c 	eorcs	r0, r0, ip, asr #32
    a098:	20200058 	eorcs	r0, r0, r8, asr r0
    a09c:	20200064 	eorcs	r0, r0, r4, rrx
    a0a0:	20200070 	eorcs	r0, r0, r0, ror r0
    a0a4:	2020007c 	eorcs	r0, r0, ip, ror r0
    a0a8:	20200088 	eorcs	r0, r0, r8, lsl #1

0000a0ac <__FUNCTION__.3866>:
    a0ac:	6f697067 	svcvs	0x00697067
    a0b0:	6165725f 	cmnvs	r5, pc, asr r2
    a0b4:	00000064 	andeq	r0, r0, r4, rrx
    a0b8:	494e4150 	stmdbmi	lr, {r4, r6, r8, lr}^
    a0bc:	73253a43 	teqvc	r5, #274432	; 0x43000
    a0c0:	3a73253a 	bcc	1cd35b0 <__bss_end__+0x1cc8f10>
    a0c4:	703a6425 	eorsvc	r6, sl, r5, lsr #8
    a0c8:	3c206e69 	stccc	14, cr6, [r0], #-420	; 0xfffffe5c
    a0cc:	0a323320 	beq	c96d54 <__bss_end__+0xc8c6b4>
    a0d0:	00000000 	andeq	r0, r0, r0
    a0d4:	672d796d 	strvs	r7, [sp, -sp, ror #18]!
    a0d8:	2e6f6970 	mcrcs	9, 3, r6, cr15, cr0, {3}
    a0dc:	00000063 	andeq	r0, r0, r3, rrx
    a0e0:	756f6261 	strbvc	r6, [pc, #-609]!	; 9e87 <crc32_tab+0x333>
    a0e4:	6f742074 	svcvs	0x00742074
    a0e8:	736e6920 	cmnvc	lr, #32, 18	; 0x80000
    a0ec:	6c6c6174 	stfvse	f6, [ip], #-464	; 0xfffffe30
    a0f0:	6e616820 	cdpvs	8, 6, cr6, cr1, cr0, {1}
    a0f4:	72656c64 	rsbvc	r6, r5, #100, 24	; 0x6400
    a0f8:	00000a73 	andeq	r0, r0, r3, ror sl
    a0fc:	74746573 	ldrbtvc	r6, [r4], #-1395	; 0x573
    a100:	20676e69 	rsbcs	r6, r7, r9, ror #28
    a104:	47207075 			; <UNDEFINED> instruction: 0x47207075
    a108:	204f4950 	subcs	r4, pc, r0, asr r9	; <UNPREDICTABLE>
    a10c:	65746e69 	ldrbvs	r6, [r4, #-3689]!	; 0xe69
    a110:	70757272 	rsbsvc	r7, r5, r2, ror r2
    a114:	66207374 			; <UNDEFINED> instruction: 0x66207374
    a118:	7020726f 	eorvc	r7, r0, pc, ror #4
    a11c:	203a6e69 	eorscs	r6, sl, r9, ror #28
    a120:	000a6425 	andeq	r6, sl, r5, lsr #8
    a124:	6e6e6f67 	cdpvs	15, 6, cr6, cr14, cr7, {3}
    a128:	6e652061 	cdpvs	0, 6, cr2, cr5, cr1, {3}
    a12c:	656c6261 	strbvs	r6, [ip, #-609]!	; 0x261
    a130:	746e6920 	strbtvc	r6, [lr], #-2336	; 0x920
    a134:	6c672073 	stclvs	0, cr2, [r7], #-460	; 0xfffffe34
    a138:	6c61626f 	sfmvs	f6, 2, [r1], #-444	; 0xfffffe44
    a13c:	0a21796c 	beq	8686f4 <__bss_end__+0x85e054>
    a140:	00000000 	andeq	r0, r0, r0
    a144:	62616e65 	rsbvs	r6, r1, #1616	; 0x650
    a148:	2164656c 	cmncs	r4, ip, ror #10
    a14c:	0000000a 	andeq	r0, r0, sl

0000a150 <__FUNCTION__.3885>:
    a150:	74736166 	ldrbtvc	r6, [r3], #-358	; 0x166
    a154:	746e695f 	strbtvc	r6, [lr], #-2399	; 0x95f
    a158:	75727265 	ldrbvc	r7, [r2, #-613]!	; 0x265
    a15c:	765f7470 			; <UNDEFINED> instruction: 0x765f7470
    a160:	6f746365 	svcvs	0x00746365
    a164:	00000072 	andeq	r0, r0, r2, ror r0

0000a168 <__FUNCTION__.3889>:
    a168:	74666f73 	strbtvc	r6, [r6], #-3955	; 0xf73
    a16c:	65726177 	ldrbvs	r6, [r2, #-375]!	; 0x177
    a170:	746e695f 	strbtvc	r6, [lr], #-2399	; 0x95f
    a174:	75727265 	ldrbvc	r7, [r2, #-613]!	; 0x265
    a178:	765f7470 			; <UNDEFINED> instruction: 0x765f7470
    a17c:	6f746365 	svcvs	0x00746365
    a180:	00000072 	andeq	r0, r0, r2, ror r0

0000a184 <__FUNCTION__.3893>:
    a184:	65736572 	ldrbvs	r6, [r3, #-1394]!	; 0x572
    a188:	65765f74 	ldrbvs	r5, [r6, #-3956]!	; 0xf74
    a18c:	726f7463 	rsbvc	r7, pc, #1660944384	; 0x63000000
    a190:	00000000 	andeq	r0, r0, r0

0000a194 <__FUNCTION__.3897>:
    a194:	65646e75 	strbvs	r6, [r4, #-3701]!	; 0xe75
    a198:	656e6966 	strbvs	r6, [lr, #-2406]!	; 0x966
    a19c:	6e695f64 	cdpvs	15, 6, cr5, cr9, cr4, {3}
    a1a0:	75727473 	ldrbvc	r7, [r2, #-1139]!	; 0x473
    a1a4:	6f697463 	svcvs	0x00697463
    a1a8:	65765f6e 	ldrbvs	r5, [r6, #-3950]!	; 0xf6e
    a1ac:	726f7463 	rsbvc	r7, pc, #1660944384	; 0x63000000
    a1b0:	00000000 	andeq	r0, r0, r0

0000a1b4 <__FUNCTION__.3901>:
    a1b4:	66657270 			; <UNDEFINED> instruction: 0x66657270
    a1b8:	68637465 	stmdavs	r3!, {r0, r2, r5, r6, sl, ip, sp, lr}^
    a1bc:	6f62615f 	svcvs	0x0062615f
    a1c0:	765f7472 			; <UNDEFINED> instruction: 0x765f7472
    a1c4:	6f746365 	svcvs	0x00746365
    a1c8:	00000072 	andeq	r0, r0, r2, ror r0

0000a1cc <__FUNCTION__.3905>:
    a1cc:	61746164 	cmnvs	r4, r4, ror #2
    a1d0:	6f62615f 	svcvs	0x0062615f
    a1d4:	765f7472 			; <UNDEFINED> instruction: 0x765f7472
    a1d8:	6f746365 	svcvs	0x00746365
    a1dc:	00000072 	andeq	r0, r0, r2, ror r0
    a1e0:	494e4150 	stmdbmi	lr, {r4, r6, r8, lr}^
    a1e4:	73253a43 	teqvc	r5, #274432	; 0x43000
    a1e8:	3a73253a 	bcc	1cd36d8 <__bss_end__+0x1cc9038>
    a1ec:	453a6425 	ldrmi	r6, [sl, #-1061]!	; 0x425
    a1f0:	524f5252 	subpl	r5, pc, #536870917	; 0x20000005
    a1f4:	6e75203a 	mrcvs	0, 3, r2, cr5, cr10, {1}
    a1f8:	646e6168 	strbtvs	r6, [lr], #-360	; 0x168
    a1fc:	2064656c 	rsbcs	r6, r4, ip, ror #10
    a200:	65637865 	strbvs	r7, [r3, #-2149]!	; 0x865
    a204:	6f697470 	svcvs	0x00697470
    a208:	253c206e 	ldrcs	r2, [ip, #-110]!	; 0x6e
    a20c:	61203e73 	teqvs	r0, r3, ror lr
    a210:	43502074 	cmpmi	r0, #116	; 0x74
    a214:	0a78253d 	beq	1e13710 <__bss_end__+0x1e09070>
    a218:	0000000a 	andeq	r0, r0, sl
    a21c:	752d7773 	strvc	r7, [sp, #-1907]!	; 0x773
    a220:	2f747261 	svccs	0x00747261
    a224:	656d6974 	strbvs	r6, [sp, #-2420]!	; 0x974
    a228:	6e692d72 	mcrvs	13, 3, r2, cr9, cr2, {3}
    a22c:	6e692f74 	mcrvs	15, 3, r2, cr9, cr4, {3}
    a230:	72726574 	rsbsvc	r6, r2, #116, 10	; 0x1d000000
    a234:	73747075 	cmnvc	r4, #117	; 0x75
    a238:	632e632d 	teqvs	lr, #-1275068416	; 0xb4000000
    a23c:	00000000 	andeq	r0, r0, r0
    a240:	74736166 	ldrbtvc	r6, [r3], #-358	; 0x166
    a244:	00000000 	andeq	r0, r0, r0
    a248:	74666f73 	strbtvc	r6, [r6], #-3955	; 0xf73
    a24c:	746e6920 	strbtvc	r6, [lr], #-2336	; 0x920
    a250:	75727265 	ldrbvc	r7, [r2, #-613]!	; 0x265
    a254:	00007470 	andeq	r7, r0, r0, ror r4
    a258:	65736572 	ldrbvs	r6, [r3, #-1394]!	; 0x572
    a25c:	65762074 	ldrbvs	r2, [r6, #-116]!	; 0x74
    a260:	726f7463 	rsbvc	r7, pc, #1660944384	; 0x63000000
    a264:	00000000 	andeq	r0, r0, r0
    a268:	65646e75 	strbvs	r6, [r4, #-3701]!	; 0xe75
    a26c:	656e6966 	strbvs	r6, [lr, #-2406]!	; 0x966
    a270:	6e692064 	cdpvs	0, 6, cr2, cr9, cr4, {3}
    a274:	75727473 	ldrbvc	r7, [r2, #-1139]!	; 0x473
    a278:	6f697463 	svcvs	0x00697463
    a27c:	0000006e 	andeq	r0, r0, lr, rrx
    a280:	66657270 			; <UNDEFINED> instruction: 0x66657270
    a284:	68637465 	stmdavs	r3!, {r0, r2, r5, r6, sl, ip, sp, lr}^
    a288:	6f626120 	svcvs	0x00626120
    a28c:	00007472 	andeq	r7, r0, r2, ror r4
    a290:	61746164 	cmnvs	r4, r4, ror #2
    a294:	6f626120 	svcvs	0x00626120
    a298:	00007472 	andeq	r7, r0, r2, ror r4

Disassembly of section .bss:

0000a29c <__bss_start__>:
	...

Disassembly of section .comment:

00000000 <.comment>:
   0:	3a434347 	bcc	10d0d24 <__bss_end__+0x10c6684>
   4:	4e472820 	cdpmi	8, 4, cr2, cr7, cr0, {1}
   8:	34202955 	strtcc	r2, [r0], #-2389	; 0x955
   c:	332e382e 	teqcc	lr, #3014656	; 0x2e0000
  10:	43434700 	movtmi	r4, #14080	; 0x3700
  14:	4728203a 			; <UNDEFINED> instruction: 0x4728203a
  18:	5420554e 	strtpl	r5, [r0], #-1358	; 0x54e
  1c:	736c6f6f 	cmnvc	ip, #444	; 0x1bc
  20:	726f6620 	rsbvc	r6, pc, #32, 12	; 0x2000000
  24:	6d724120 	ldfvse	f4, [r2, #-128]!	; 0xffffff80
  28:	626d4520 	rsbvs	r4, sp, #32, 10	; 0x8000000
  2c:	65646465 	strbvs	r6, [r4, #-1125]!	; 0x465
  30:	72502064 	subsvc	r2, r0, #100	; 0x64
  34:	7365636f 	cmnvc	r5, #-1140850687	; 0xbc000001
  38:	73726f73 	cmnvc	r2, #460	; 0x1cc
  3c:	322d3720 	eorcc	r3, sp, #32, 14	; 0x800000
  40:	2d373130 	ldfcss	f3, [r7, #-192]!	; 0xffffff40
  44:	6d2d3471 	cfstrsvs	mvf3, [sp, #-452]!	; 0xfffffe3c
  48:	726f6a61 	rsbvc	r6, pc, #397312	; 0x61000
  4c:	2e372029 	cdpcs	0, 3, cr2, cr7, cr9, {1}
  50:	20312e32 	eorscs	r2, r1, r2, lsr lr
  54:	37313032 			; <UNDEFINED> instruction: 0x37313032
  58:	34303930 	ldrtcc	r3, [r0], #-2352	; 0x930
  5c:	65722820 	ldrbvs	r2, [r2, #-2080]!	; 0x820
  60:	7361656c 	cmnvc	r1, #108, 10	; 0x1b000000
  64:	5b202965 	blpl	80a600 <__bss_end__+0x7fff60>
  68:	2f4d5241 	svccs	0x004d5241
  6c:	65626d65 	strbvs	r6, [r2, #-3429]!	; 0xd65
  70:	64656464 	strbtvs	r6, [r5], #-1124	; 0x464
  74:	622d372d 	eorvs	r3, sp, #11796480	; 0xb40000
  78:	636e6172 	cmnvs	lr, #-2147483620	; 0x8000001c
  7c:	65722068 	ldrbvs	r2, [r2, #-104]!	; 0x68
  80:	69736976 	ldmdbvs	r3!, {r1, r2, r4, r5, r6, r8, fp, sp, lr}^
  84:	32206e6f 	eorcc	r6, r0, #1776	; 0x6f0
  88:	30323535 	eorscc	r3, r2, r5, lsr r5
  8c:	Address 0x000000000000008c is out of bounds.


Disassembly of section .ARM.attributes:

00000000 <.ARM.attributes>:
   0:	00002c41 	andeq	r2, r0, r1, asr #24
   4:	61656100 	cmnvs	r5, r0, lsl #2
   8:	01006962 	tsteq	r0, r2, ror #18
   c:	00000022 	andeq	r0, r0, r2, lsr #32
  10:	4b5a3605 	blmi	168d82c <__bss_end__+0x168318c>
  14:	08070600 	stmdaeq	r7, {r9, sl}
  18:	12010901 	andne	r0, r1, #16384	; 0x4000
  1c:	15011404 	strne	r1, [r1, #-1028]	; 0x404
  20:	18031701 	stmdane	r3, {r0, r8, r9, sl, ip}
  24:	1e011a01 	vmlane.f32	s2, s2, s2
  28:	44012201 	strmi	r2, [r1], #-513	; 0x201
  2c:	Address 0x000000000000002c is out of bounds.


Disassembly of section .debug_info:

00000000 <.debug_info>:
   0:	00000820 	andeq	r0, r0, r0, lsr #16
   4:	00000004 	andeq	r0, r0, r4
   8:	01040000 	mrseq	r0, (UNDEF: 4)
   c:	0000019e 	muleq	r0, lr, r1
  10:	0004500c 	andeq	r5, r4, ip
  14:	cc002e00 	stcgt	14, cr2, [r0], {-0}
  18:	1800008f 	stmdane	r0, {r0, r1, r2, r3, r7}
  1c:	00000005 	andeq	r0, r0, r5
  20:	02000000 	andeq	r0, r0, #0
  24:	01810107 	orreq	r0, r1, r7, lsl #2
  28:	18030000 	stmdane	r3, {}	; <UNPREDICTABLE>
  2c:	00000181 	andeq	r0, r0, r1, lsl #3
  30:	00044103 	andeq	r4, r4, r3, lsl #2
  34:	c0030000 	andgt	r0, r3, r0
  38:	00000004 	andeq	r0, r0, r4
  3c:	0004ca03 	andeq	ip, r4, r3, lsl #20
  40:	d4030100 	strle	r0, [r3], #-256	; 0x100
  44:	02000004 	andeq	r0, r0, #4
  48:	0004de03 	andeq	sp, r4, r3, lsl #28
  4c:	e8030300 	stmda	r3, {r8, r9}
  50:	04000004 	streq	r0, [r0], #-4
  54:	0004f203 	andeq	pc, r4, r3, lsl #4
  58:	fc030500 	stc2	5, cr0, [r3], {-0}
  5c:	06000004 	streq	r0, [r0], -r4
  60:	00050603 	andeq	r0, r5, r3, lsl #12
  64:	10030700 	andne	r0, r3, r0, lsl #14
  68:	08000005 	stmdaeq	r0, {r0, r2}
  6c:	00051a03 	andeq	r1, r5, r3, lsl #20
  70:	84030900 	strhi	r0, [r3], #-2304	; 0x900
  74:	0a000003 	beq	88 <_start-0x7f78>
  78:	00038f03 	andeq	r8, r3, r3, lsl #30
  7c:	9a030b00 	bls	c2c84 <__bss_end__+0xb85e4>
  80:	0c000003 	stceq	0, cr0, [r0], {3}
  84:	0003a503 	andeq	sl, r3, r3, lsl #10
  88:	b0030d00 	andlt	r0, r3, r0, lsl #26
  8c:	0e000003 	cdpeq	0, 0, cr0, cr0, cr3, {0}
  90:	0003bb03 	andeq	fp, r3, r3, lsl #22
  94:	c6030f00 	strgt	r0, [r3], -r0, lsl #30
  98:	10000003 	andne	r0, r0, r3
  9c:	0003d103 	andeq	sp, r3, r3, lsl #2
  a0:	dc031100 	stfles	f1, [r3], {-0}
  a4:	12000003 	andne	r0, r0, #3
  a8:	0003e703 	andeq	lr, r3, r3, lsl #14
  ac:	24031300 	strcs	r1, [r3], #-768	; 0x300
  b0:	14000005 	strne	r0, [r0], #-5
  b4:	00052f03 	andeq	r2, r5, r3, lsl #30
  b8:	3a031500 	bcc	c54c0 <__bss_end__+0xbae20>
  bc:	16000005 	strne	r0, [r0], -r5
  c0:	00054503 	andeq	r4, r5, r3, lsl #10
  c4:	50031700 	andpl	r1, r3, r0, lsl #14
  c8:	18000005 	stmdane	r0, {r0, r2}
  cc:	00055b03 	andeq	r5, r5, r3, lsl #22
  d0:	66031900 	strvs	r1, [r3], -r0, lsl #18
  d4:	1a000005 	bne	f0 <_start-0x7f10>
  d8:	00057103 	andeq	r7, r5, r3, lsl #2
  dc:	7c031b00 	stcvc	11, cr1, [r3], {-0}
  e0:	1c000005 	stcne	0, cr0, [r0], {5}
  e4:	00058703 	andeq	r8, r5, r3, lsl #14
  e8:	d2031d00 	andle	r1, r3, #0, 26
  ec:	1e000000 	cdpne	0, 0, cr0, cr0, cr0, {0}
  f0:	0000dd03 	andeq	sp, r0, r3, lsl #26
  f4:	e8031f00 	stmda	r3, {r8, r9, sl, fp, ip}
  f8:	20000000 	andcs	r0, r0, r0
  fc:	0000f303 	andeq	pc, r0, r3, lsl #6
 100:	fe032100 	cdp2	1, 0, cr2, cr3, cr0, {0}
 104:	22000000 	andcs	r0, r0, #0
 108:	00010903 	andeq	r0, r1, r3, lsl #18
 10c:	14032300 	strne	r2, [r3], #-768	; 0x300
 110:	24000001 	strcs	r0, [r0], #-1
 114:	00011f03 	andeq	r1, r1, r3, lsl #30
 118:	2a032500 	bcs	c9520 <__bss_end__+0xbee80>
 11c:	26000001 	strcs	r0, [r0], -r1
 120:	00013503 	andeq	r3, r1, r3, lsl #10
 124:	8a032700 	bhi	c9d2c <__bss_end__+0xbf68c>
 128:	28000002 	stmdacs	r0, {r1}
 12c:	00029503 	andeq	r9, r2, r3, lsl #10
 130:	a0032900 	andge	r2, r3, r0, lsl #18
 134:	2a000002 	bcs	144 <_start-0x7ebc>
 138:	0002ab03 	andeq	sl, r2, r3, lsl #22
 13c:	b6032b00 	strlt	r2, [r3], -r0, lsl #22
 140:	2c000002 	stccs	0, cr0, [r0], {2}
 144:	0002c103 	andeq	ip, r2, r3, lsl #2
 148:	cc032d00 	stcgt	13, cr2, [r3], {-0}
 14c:	2e000002 	cdpcs	0, 0, cr0, cr0, cr2, {0}
 150:	0002d703 	andeq	sp, r2, r3, lsl #14
 154:	e2032f00 	and	r2, r3, #0, 30
 158:	30000002 	andcc	r0, r0, r2
 15c:	0002ed03 	andeq	lr, r2, r3, lsl #26
 160:	f8033100 			; <UNDEFINED> instruction: 0xf8033100
 164:	32000003 	andcc	r0, r0, #3
 168:	00040303 	andeq	r0, r4, r3, lsl #6
 16c:	0e033300 	cdpeq	3, 0, cr3, cr3, cr0, {0}
 170:	34000004 	strcc	r0, [r0], #-4
 174:	00041903 	andeq	r1, r4, r3, lsl #18
 178:	58033500 	stmdapl	r3, {r8, sl, ip, sp}
 17c:	35000001 	strcc	r0, [r0, #-1]
 180:	08010400 	stmdaeq	r1, {sl}
 184:	000002f8 	strdeq	r0, [r0], -r8
 188:	00005505 	andeq	r5, r0, r5, lsl #10
 18c:	81010700 	tsthi	r1, r0, lsl #14
 190:	04000001 	streq	r0, [r0], #-1
 194:	0001be11 	andeq	fp, r1, r1, lsl lr
 198:	01400300 	mrseq	r0, SPSR_irq
 19c:	03000000 	movweq	r0, #0
 1a0:	0000036b 	andeq	r0, r0, fp, ror #6
 1a4:	033c0301 	teqeq	ip, #67108864	; 0x4000000
 1a8:	03020000 	movweq	r0, #8192	; 0x2000
 1ac:	00000206 	andeq	r0, r0, r6, lsl #4
 1b0:	02260303 	eoreq	r0, r6, #201326592	; 0xc000000
 1b4:	03040000 	movweq	r0, #16384	; 0x4000
 1b8:	0000006f 	andeq	r0, r0, pc, rrx
 1bc:	01040005 	tsteq	r4, r5
 1c0:	0002fa06 	andeq	pc, r2, r6, lsl #20
 1c4:	05020400 	streq	r0, [r2, #-1024]	; 0x400
 1c8:	00000060 	andeq	r0, r0, r0, rrx
 1cc:	95050404 	strls	r0, [r5, #-1028]	; 0x404
 1d0:	04000001 	streq	r0, [r0], #-1
 1d4:	01900508 	orrseq	r0, r0, r8, lsl #10
 1d8:	02040000 	andeq	r0, r4, #0
 1dc:	00035307 	andeq	r5, r3, r7, lsl #6
 1e0:	032d0600 	teqeq	sp, #0, 12
 1e4:	34050000 	strcc	r0, [r5], #-0
 1e8:	000001f1 	strdeq	r0, [r0], -r1
 1ec:	0001e107 	andeq	lr, r1, r7, lsl #2
 1f0:	07040400 	streq	r0, [r4, -r0, lsl #8]
 1f4:	0000031b 	andeq	r0, r0, fp, lsl r3
 1f8:	16070804 	strne	r0, [r7], -r4, lsl #16
 1fc:	08000003 	stmdaeq	r0, {r0, r1}
 200:	6e690504 	cdpvs	5, 6, cr0, cr9, cr4, {0}
 204:	ff070074 			; <UNDEFINED> instruction: 0xff070074
 208:	04000001 	streq	r0, [r0], #-1
 20c:	03200704 	teqeq	r0, #4, 14	; 0x100000
 210:	37090000 	strcc	r0, [r9, -r0]
 214:	a0000003 	andge	r0, r0, r3
 218:	033f0702 	teqeq	pc, #524288	; 0x80000
 21c:	6a0a0000 	bvs	280224 <__bss_end__+0x275b84>
 220:	02000000 	andeq	r0, r0, #0
 224:	00034408 	andeq	r4, r3, r8, lsl #8
 228:	800a0000 	andhi	r0, sl, r0
 22c:	02000002 	andeq	r0, r0, #2
 230:	0001e109 	andeq	lr, r1, r9, lsl #2
 234:	730b1800 	movwvc	r1, #47104	; 0xb800
 238:	02007465 	andeq	r7, r0, #1694498816	; 0x65000000
 23c:	0003540a 	andeq	r5, r3, sl, lsl #8
 240:	5c0a1c00 	stcpl	12, cr1, [sl], {-0}
 244:	02000004 	andeq	r0, r0, #4
 248:	0001e10b 	andeq	lr, r1, fp, lsl #2
 24c:	630b2400 	movwvs	r2, #46080	; 0xb400
 250:	0200726c 	andeq	r7, r0, #108, 4	; 0xc0000006
 254:	0003540c 	andeq	r5, r3, ip, lsl #8
 258:	660a2800 	strvs	r2, [sl], -r0, lsl #16
 25c:	02000004 	andeq	r0, r0, #4
 260:	0001e10d 	andeq	lr, r1, sp, lsl #2
 264:	6c0b3000 	stcvs	0, cr3, [fp], {-0}
 268:	02007665 	andeq	r7, r0, #105906176	; 0x6500000
 26c:	0003540e 	andeq	r5, r3, lr, lsl #8
 270:	700a3400 	andvc	r3, sl, r0, lsl #8
 274:	02000004 	andeq	r0, r0, #4
 278:	0001e10f 	andeq	lr, r1, pc, lsl #2
 27c:	650b3c00 	strvs	r3, [fp, #-3072]	; 0xc00
 280:	02007364 	andeq	r7, r0, #100, 6	; 0x90000001
 284:	00035410 	andeq	r5, r3, r0, lsl r4
 288:	7a0a4000 	bvc	290290 <__bss_end__+0x285bf0>
 28c:	02000004 	andeq	r0, r0, #4
 290:	0001e111 	andeq	lr, r1, r1, lsl r1
 294:	720b4800 	andvc	r4, fp, #0, 16
 298:	02006e65 	andeq	r6, r0, #1616	; 0x650
 29c:	00035412 	andeq	r5, r3, r2, lsl r4
 2a0:	840a4c00 	strhi	r4, [sl], #-3072	; 0xc00
 2a4:	02000004 	andeq	r0, r0, #4
 2a8:	0001e113 	andeq	lr, r1, r3, lsl r1
 2ac:	660b5400 	strvs	r5, [fp], -r0, lsl #8
 2b0:	02006e65 	andeq	r6, r0, #1616	; 0x650
 2b4:	00035414 	andeq	r5, r3, r4, lsl r4
 2b8:	8e0a5800 	cdphi	8, 0, cr5, cr10, cr0, {0}
 2bc:	02000004 	andeq	r0, r0, #4
 2c0:	0001e115 	andeq	lr, r1, r5, lsl r1
 2c4:	680b6000 	stmdavs	fp, {sp, lr}
 2c8:	02006e65 	andeq	r6, r0, #1616	; 0x650
 2cc:	00035416 	andeq	r5, r3, r6, lsl r4
 2d0:	980a6400 	stmdals	sl, {sl, sp, lr}
 2d4:	02000004 	andeq	r0, r0, #4
 2d8:	0001e117 	andeq	lr, r1, r7, lsl r1
 2dc:	6c0b6c00 	stcvs	12, cr6, [fp], {-0}
 2e0:	02006e65 	andeq	r6, r0, #1616	; 0x650
 2e4:	00035418 	andeq	r5, r3, r8, lsl r4
 2e8:	a20a7000 	andge	r7, sl, #0
 2ec:	02000004 	andeq	r0, r0, #4
 2f0:	0001e119 	andeq	lr, r1, r9, lsl r1
 2f4:	110a7800 	tstne	sl, r0, lsl #16
 2f8:	02000000 	andeq	r0, r0, #0
 2fc:	0003541a 	andeq	r5, r3, sl, lsl r4
 300:	ac0a7c00 	stcge	12, cr7, [sl], {-0}
 304:	02000004 	andeq	r0, r0, #4
 308:	0001e11b 	andeq	lr, r1, fp, lsl r1
 30c:	440a8400 	strmi	r8, [sl], #-1024	; 0x400
 310:	02000002 	andeq	r0, r0, #2
 314:	0003541c 	andeq	r5, r3, ip, lsl r4
 318:	b60a8800 	strlt	r8, [sl], -r0, lsl #16
 31c:	02000004 	andeq	r0, r0, #4
 320:	0001e11d 	andeq	lr, r1, sp, lsl r1
 324:	700b9000 	andvc	r9, fp, r0
 328:	02006475 	andeq	r6, r0, #1962934272	; 0x75000000
 32c:	0001e11e 	andeq	lr, r1, lr, lsl r1
 330:	770a9400 	strvc	r9, [sl, -r0, lsl #8]
 334:	02000001 	andeq	r0, r0, #1
 338:	0003541f 	andeq	r5, r3, pc, lsl r4
 33c:	07009800 	streq	r9, [r0, -r0, lsl #16]
 340:	00000212 	andeq	r0, r0, r2, lsl r2
 344:	0001e10c 	andeq	lr, r1, ip, lsl #2
 348:	00035400 	andeq	r5, r3, r0, lsl #8
 34c:	020b0d00 	andeq	r0, fp, #0, 26
 350:	00050000 	andeq	r0, r5, r0
 354:	0001e10c 	andeq	lr, r1, ip, lsl #2
 358:	00036400 	andeq	r6, r3, r0, lsl #8
 35c:	020b0d00 	andeq	r0, fp, #0, 26
 360:	00010000 	andeq	r0, r1, r0
 364:	0003360e 	andeq	r3, r3, lr, lsl #12
 368:	79220200 	stmdbvc	r2!, {r9}
 36c:	00000003 	andeq	r0, r0, r3
 370:	0f202000 	svceq	0x00202000
 374:	00033f04 	andeq	r3, r3, r4, lsl #30
 378:	03731000 	cmneq	r3, #0
 37c:	07020000 	streq	r0, [r2, -r0]
 380:	00018101 	andeq	r8, r1, r1, lsl #2
 384:	9e860100 	rmflss	f0, f6, f0
 388:	03000003 	movweq	r0, #3
 38c:	00000592 	muleq	r0, r2, r5
 390:	026e0300 	rsbeq	r0, lr, #0, 6
 394:	03010000 	movweq	r0, #4096	; 0x1000
 398:	00000306 	andeq	r0, r0, r6, lsl #6
 39c:	5c110002 	ldcpl	0, cr0, [r1], {2}
 3a0:	01000002 	tsteq	r0, r2
 3a4:	0094c4a4 	addseq	ip, r4, r4, lsr #9
 3a8:	00002000 	andeq	r2, r0, r0
 3ac:	d99c0100 	ldmible	ip, {r8}
 3b0:	12000003 	andne	r0, r0, #3
 3b4:	006e6970 	rsbeq	r6, lr, r0, ror r9
 3b8:	020ba401 	andeq	sl, fp, #16777216	; 0x1000000
 3bc:	00000000 	andeq	r0, r0, r0
 3c0:	d8130000 	ldmdale	r3, {}	; <UNPREDICTABLE>
 3c4:	4f000094 	svcmi	0x00000094
 3c8:	14000004 	strne	r0, [r0], #-4
 3cc:	f3035001 	vhadd.u8	d5, d3, d1
 3d0:	01145001 	tsteq	r4, r1
 3d4:	00300151 	eorseq	r0, r0, r1, asr r1
 3d8:	017e1100 	cmneq	lr, r0, lsl #2
 3dc:	9f010000 	svcls	0x00010000
 3e0:	0000948c 	andeq	r9, r0, ip, lsl #9
 3e4:	00000020 	andeq	r0, r0, r0, lsr #32
 3e8:	04149c01 	ldreq	r9, [r4], #-3073	; 0xc01
 3ec:	70120000 	andsvc	r0, r2, r0
 3f0:	01006e69 	tsteq	r0, r9, ror #28
 3f4:	00020b9f 	muleq	r2, pc, fp	; <UNPREDICTABLE>
 3f8:	00002100 	andeq	r2, r0, r0, lsl #2
 3fc:	94a01300 	strtls	r1, [r0], #768	; 0x300
 400:	044f0000 	strbeq	r0, [pc], #-0	; 408 <_start-0x7bf8>
 404:	01140000 	tsteq	r4, r0
 408:	01f30350 	mvnseq	r0, r0, asr r3
 40c:	51011450 	tstpl	r1, r0, asr r4
 410:	00003101 	andeq	r3, r0, r1, lsl #2
 414:	00001611 	andeq	r1, r0, r1, lsl r6
 418:	549a0100 	ldrpl	r0, [sl], #256	; 0x100
 41c:	20000094 	mulcs	r0, r4, r0
 420:	01000000 	mrseq	r0, (UNDEF: 0)
 424:	00044f9c 	muleq	r4, ip, pc	; <UNPREDICTABLE>
 428:	69701200 	ldmdbvs	r0!, {r9, ip}^
 42c:	9a01006e 	bls	405ec <__bss_end__+0x35f4c>
 430:	0000020b 	andeq	r0, r0, fp, lsl #4
 434:	00000042 	andeq	r0, r0, r2, asr #32
 438:	00946813 	addseq	r6, r4, r3, lsl r8
 43c:	00044f00 	andeq	r4, r4, r0, lsl #30
 440:	50011400 	andpl	r1, r1, r0, lsl #8
 444:	5001f303 	andpl	pc, r1, r3, lsl #6
 448:	01510114 	cmpeq	r1, r4, lsl r1
 44c:	15000032 	strne	r0, [r0, #-50]	; 0x32
 450:	000005a3 	andeq	r0, r0, r3, lsr #11
 454:	90508801 	subsls	r8, r0, r1, lsl #16
 458:	00a40000 	adceq	r0, r4, r0
 45c:	9c010000 	stcls	0, cr0, [r1], {-0}
 460:	000004d1 	ldrdeq	r0, [r0], -r1
 464:	6e697012 	mcrvs	0, 3, r7, cr9, cr2, {0}
 468:	0b880100 	bleq	fe200870 <__bss_end__+0xfe1f61d0>
 46c:	63000002 	movwvs	r0, #2
 470:	12000000 	andne	r0, r0, #0
 474:	00647570 	rsbeq	r7, r4, r0, ror r5
 478:	020b8801 	andeq	r8, fp, #65536	; 0x10000
 47c:	00840000 	addeq	r0, r4, r0
 480:	66160000 	ldrvs	r0, [r6], -r0
 484:	01000003 	tsteq	r0, r3
 488:	00020b8e 	andeq	r0, r2, lr, lsl #23
 48c:	0000a500 	andeq	sl, r0, r0, lsl #10
 490:	02001600 	andeq	r1, r0, #0, 12
 494:	8f010000 	svchi	0x00010000
 498:	0000020b 	andeq	r0, r0, fp, lsl #4
 49c:	000000c5 	andeq	r0, r0, r5, asr #1
 4a0:	00907817 	addseq	r7, r0, r7, lsl r8
 4a4:	00002400 	andeq	r2, r0, r0, lsl #8
 4a8:	0004ba00 	andeq	fp, r4, r0, lsl #20
 4ac:	00691800 	rsbeq	r1, r9, r0, lsl #16
 4b0:	02069201 	andeq	r9, r6, #268435456	; 0x10000000
 4b4:	91020000 	mrsls	r0, (UNDEF: 2)
 4b8:	b0190068 	andslt	r0, r9, r8, rrx
 4bc:	24000090 	strcs	r0, [r0], #-144	; 0x90
 4c0:	18000000 	stmdane	r0, {}	; <UNPREDICTABLE>
 4c4:	95010069 	strls	r0, [r1, #-105]	; 0x69
 4c8:	00000206 	andeq	r0, r0, r6, lsl #4
 4cc:	006c9102 	rsbeq	r9, ip, r2, lsl #2
 4d0:	00b11100 	adcseq	r1, r1, r0, lsl #2
 4d4:	6a010000 	bvs	404dc <__bss_end__+0x35e3c>
 4d8:	000093f0 	strdeq	r9, [r0], -r0
 4dc:	00000050 	andeq	r0, r0, r0, asr r0
 4e0:	053c9c01 	ldreq	r9, [ip, #-3073]!	; 0xc01
 4e4:	70120000 	andsvc	r0, r2, r0
 4e8:	01006e69 	tsteq	r0, r9, ror #28
 4ec:	00020b6a 	andeq	r0, r2, sl, ror #22
 4f0:	0000e800 	andeq	lr, r0, r0, lsl #16
 4f4:	94081700 	strls	r1, [r8], #-1792	; 0x700
 4f8:	00240000 	eoreq	r0, r4, r0
 4fc:	052b0000 	streq	r0, [fp, #-0]!
 500:	691a0000 	ldmdbvs	sl, {}	; <UNPREDICTABLE>
 504:	ff6f0100 			; <UNDEFINED> instruction: 0xff6f0100
 508:	14000001 	strne	r0, [r0], #-1
 50c:	13000001 	movwne	r0, #1
 510:	00009420 	andeq	r9, r0, r0, lsr #8
 514:	0000074b 	andeq	r0, r0, fp, asr #14
 518:	02500114 	subseq	r0, r0, #20, 2
 51c:	01140075 	tsteq	r4, r5, ror r0
 520:	00740251 	rsbseq	r0, r4, r1, asr r2
 524:	01520114 	cmpeq	r2, r4, lsl r1
 528:	13000030 	movwne	r0, #48	; 0x30
 52c:	00009434 	andeq	r9, r0, r4, lsr r4
 530:	00000594 	muleq	r0, r4, r5
 534:	02500114 	subseq	r0, r0, #20, 2
 538:	00000075 	andeq	r0, r0, r5, ror r0
 53c:	00008e1b 	andeq	r8, r0, fp, lsl lr
 540:	8d5f0100 	ldfhie	f0, [pc, #-0]	; 548 <_start-0x7ab8>
 544:	84000005 	strhi	r0, [r0], #-5
 548:	44000093 	strmi	r0, [r0], #-147	; 0x93
 54c:	01000000 	mrseq	r0, (UNDEF: 0)
 550:	00058d9c 	muleq	r5, ip, sp
 554:	69701200 	ldmdbvs	r0!, {r9, ip}^
 558:	5f01006e 	svcpl	0x0001006e
 55c:	0000020b 	andeq	r0, r0, fp, lsl #4
 560:	00000127 	andeq	r0, r0, r7, lsr #2
 564:	00017116 	andeq	r7, r1, r6, lsl r1
 568:	8d650100 	stfhie	f0, [r5, #-0]
 56c:	69000005 	stmdbvs	r0, {r0, r2}
 570:	1c000001 	stcne	0, cr0, [r0], {1}
 574:	000093b4 			; <UNDEFINED> instruction: 0x000093b4
 578:	000005e6 	andeq	r0, r0, r6, ror #11
 57c:	0093c413 	addseq	ip, r3, r3, lsl r4
 580:	00059400 	andeq	r9, r5, r0, lsl #8
 584:	50011400 	andpl	r1, r1, r0, lsl #8
 588:	00007402 	andeq	r7, r0, r2, lsl #8
 58c:	02010400 	andeq	r0, r1, #0, 8
 590:	000003f2 	strdeq	r0, [r0], -r2
 594:	00000011 	andeq	r0, r0, r1, lsl r0
 598:	f8530100 			; <UNDEFINED> instruction: 0xf8530100
 59c:	50000091 	mulpl	r0, r1, r0
 5a0:	01000000 	mrseq	r0, (UNDEF: 0)
 5a4:	0005e69c 	muleq	r5, ip, r6
 5a8:	69701200 	ldmdbvs	r0!, {r9, ip}^
 5ac:	5301006e 	movwpl	r0, #4206	; 0x106e
 5b0:	0000020b 	andeq	r0, r0, fp, lsl #4
 5b4:	0000017c 	andeq	r0, r0, ip, ror r1
 5b8:	00036616 	andeq	r6, r3, r6, lsl r6
 5bc:	0b590100 	bleq	16409c4 <__bss_end__+0x1636324>
 5c0:	b6000002 	strlt	r0, [r0], -r2
 5c4:	1d000001 	stcne	0, cr0, [r0, #-4]
 5c8:	00000200 	andeq	r0, r0, r0, lsl #4
 5cc:	020b5a01 	andeq	r5, fp, #4096	; 0x1000
 5d0:	55010000 	strpl	r0, [r1, #-0]
 5d4:	00922413 	addseq	r2, r2, r3, lsl r4
 5d8:	0005e600 	andeq	lr, r5, r0, lsl #12
 5dc:	50011400 	andpl	r1, r1, r0, lsl #8
 5e0:	5001f303 	andpl	pc, r1, r3, lsl #6
 5e4:	661b0000 	ldrvs	r0, [fp], -r0
 5e8:	01000001 	tsteq	r0, r1
 5ec:	00058d48 	andeq	r8, r5, r8, asr #26
 5f0:	00919000 	addseq	r9, r1, r0
 5f4:	00005000 	andeq	r5, r0, r0
 5f8:	2d9c0100 	ldfcss	f0, [ip]
 5fc:	12000006 	andne	r0, r0, #6
 600:	006e6970 	rsbeq	r6, lr, r0, ror r9
 604:	020b4801 	andeq	r4, fp, #65536	; 0x10000
 608:	01d60000 	bicseq	r0, r6, r0
 60c:	66160000 	ldrvs	r0, [r6], -r0
 610:	01000003 	tsteq	r0, r3
 614:	00020b4e 	andeq	r0, r2, lr, asr #22
 618:	00021000 	andeq	r1, r2, r0
 61c:	02001600 	andeq	r1, r0, #0, 12
 620:	4f010000 	svcmi	0x00010000
 624:	0000020b 	andeq	r0, r0, fp, lsl #4
 628:	00000240 	andeq	r0, r0, r0, asr #4
 62c:	00261100 	eoreq	r1, r6, r0, lsl #2
 630:	43010000 	movwmi	r0, #4096	; 0x1000
 634:	00009344 	andeq	r9, r0, r4, asr #6
 638:	00000020 	andeq	r0, r0, r0, lsr #32
 63c:	067e9c01 	ldrbteq	r9, [lr], -r1, lsl #24
 640:	70120000 	andsvc	r0, r2, r0
 644:	01006e69 	tsteq	r0, r9, ror #28
 648:	00020b43 	andeq	r0, r2, r3, asr #22
 64c:	00026300 	andeq	r6, r2, r0, lsl #6
 650:	01711e00 	cmneq	r1, r0, lsl #28
 654:	43010000 	movwmi	r0, #4096	; 0x1000
 658:	0000020b 	andeq	r0, r0, fp, lsl #4
 65c:	00000284 	andeq	r0, r0, r4, lsl #5
 660:	00935813 	addseq	r5, r3, r3, lsl r8
 664:	00074b00 	andeq	r4, r7, r0, lsl #22
 668:	50011400 	andpl	r1, r1, r0, lsl #8
 66c:	5001f303 	andpl	pc, r1, r3, lsl #6
 670:	03510114 	cmpeq	r1, #20, 2
 674:	145101f3 	ldrbne	r0, [r1], #-499	; 0x1f3
 678:	31015201 	tstcc	r1, r1, lsl #4
 67c:	24110000 	ldrcs	r0, [r1], #-0
 680:	01000004 	tsteq	r0, r4
 684:	0093043e 	addseq	r0, r3, lr, lsr r4
 688:	00002000 	andeq	r2, r0, r0
 68c:	cf9c0100 	svcgt	0x009c0100
 690:	12000006 	andne	r0, r0, #6
 694:	006e6970 	rsbeq	r6, lr, r0, ror r9
 698:	020b3e01 	andeq	r3, fp, #1, 28
 69c:	02a50000 	adceq	r0, r5, #0
 6a0:	711e0000 	tstvc	lr, r0
 6a4:	01000001 	tsteq	r0, r1
 6a8:	00020b3e 	andeq	r0, r2, lr, lsr fp
 6ac:	0002c600 	andeq	ip, r2, r0, lsl #12
 6b0:	93181300 	tstls	r8, #0, 6
 6b4:	074b0000 	strbeq	r0, [fp, -r0]
 6b8:	01140000 	tsteq	r4, r0
 6bc:	01f30350 	mvnseq	r0, r0, asr r3
 6c0:	51011450 	tstpl	r1, r0, asr r4
 6c4:	5101f303 	tstpl	r1, r3, lsl #6
 6c8:	01520114 	cmpeq	r2, r4, lsl r1
 6cc:	1b000030 	blne	794 <_start-0x786c>
 6d0:	000001e7 	andeq	r0, r0, r7, ror #3
 6d4:	058d3101 	streq	r3, [sp, #257]	; 0x101
 6d8:	91140000 	tstls	r4, r0
 6dc:	00640000 	rsbeq	r0, r4, r0
 6e0:	9c010000 	stcls	0, cr0, [r1], {-0}
 6e4:	00000745 	andeq	r0, r0, r5, asr #14
 6e8:	6e697012 	mcrvs	0, 3, r7, cr9, cr2, {0}
 6ec:	0b310100 	bleq	c40af4 <__bss_end__+0xc36454>
 6f0:	e7000002 	str	r0, [r0, -r2]
 6f4:	1e000002 	cdpne	0, 0, cr0, cr0, cr2, {0}
 6f8:	00000171 	andeq	r0, r0, r1, ror r1
 6fc:	020b3101 	andeq	r3, fp, #1073741824	; 0x40000000
 700:	031e0000 	tsteq	lr, #0
 704:	721a0000 	andsvc	r0, sl, #0
 708:	01006765 	tsteq	r0, r5, ror #14
 70c:	00074533 	andeq	r4, r7, r3, lsr r5
 710:	00033f00 	andeq	r3, r3, r0, lsl #30
 714:	03661600 	cmneq	r6, #0, 12
 718:	39010000 	stmdbcc	r1, {}	; <UNPREDICTABLE>
 71c:	0000020b 	andeq	r0, r0, fp, lsl #4
 720:	00000368 	andeq	r0, r0, r8, ror #6
 724:	00020016 	andeq	r0, r2, r6, lsl r0
 728:	0b3a0100 	bleq	e80b30 <__bss_end__+0xe76490>
 72c:	8b000002 	blhi	73c <_start-0x78c4>
 730:	13000003 	movwne	r0, #3
 734:	0000912c 	andeq	r9, r0, ip, lsr #2
 738:	000007e0 	andeq	r0, r0, r0, ror #15
 73c:	03500114 	cmpeq	r0, #20, 2
 740:	005101f3 	ldrsheq	r0, [r1], #-19	; 0xffffffed
 744:	ec040f00 	stc	15, cr0, [r4], {-0}
 748:	15000001 	strne	r0, [r0, #-1]
 74c:	00000249 	andeq	r0, r0, r9, asr #4
 750:	92602001 	rsbls	r2, r0, #1
 754:	00800000 	addeq	r0, r0, r0
 758:	9c010000 	stcls	0, cr0, [r1], {-0}
 75c:	000007e0 	andeq	r0, r0, r0, ror #15
 760:	6e697012 	mcrvs	0, 3, r7, cr9, cr2, {0}
 764:	0b200100 	bleq	800b6c <__bss_end__+0x7f64cc>
 768:	9e000002 	cdpls	0, 0, cr0, cr0, cr2, {0}
 76c:	1e000003 	cdpne	0, 0, cr0, cr0, cr3, {0}
 770:	00000171 	andeq	r0, r0, r1, ror r1
 774:	020b2001 	andeq	r2, fp, #1
 778:	03d50000 	bicseq	r0, r5, #0
 77c:	a91e0000 	ldmdbge	lr, {}	; <UNPREDICTABLE>
 780:	01000000 	mrseq	r0, (UNDEF: 0)
 784:	00020b20 	andeq	r0, r2, r0, lsr #22
 788:	0003f600 	andeq	pc, r3, r0, lsl #12
 78c:	65721a00 	ldrbvs	r1, [r2, #-2560]!	; 0xa00
 790:	22010067 	andcs	r0, r1, #103	; 0x67
 794:	00000745 	andeq	r0, r0, r5, asr #14
 798:	0000042d 	andeq	r0, r0, sp, lsr #8
 79c:	00036616 	andeq	r6, r3, r6, lsl r6
 7a0:	0b280100 	bleq	a00ba8 <__bss_end__+0x9f6508>
 7a4:	56000002 	strpl	r0, [r0], -r2
 7a8:	16000004 	strne	r0, [r0], -r4
 7ac:	00000200 	andeq	r0, r0, r0, lsl #4
 7b0:	020b2901 	andeq	r2, fp, #16384	; 0x4000
 7b4:	04830000 	streq	r0, [r3], #0
 7b8:	7c1f0000 	ldcvc	0, cr0, [pc], {-0}
 7bc:	e0000092 	mul	r0, r2, r0
 7c0:	cf000007 	svcgt	0x00000007
 7c4:	14000007 	strne	r0, [r0], #-7
 7c8:	f3035001 	vhadd.u8	d5, d3, d1
 7cc:	13005101 	movwne	r5, #257	; 0x101
 7d0:	000092c0 	andeq	r9, r0, r0, asr #5
 7d4:	00000594 	muleq	r0, r4, r5
 7d8:	02500114 	subseq	r0, r0, #20, 2
 7dc:	00000074 	andeq	r0, r0, r4, ror r0
 7e0:	00004220 	andeq	r4, r0, r0, lsr #4
 7e4:	45180100 	ldrmi	r0, [r8, #-256]	; 0x100
 7e8:	e4000007 	str	r0, [r0], #-7
 7ec:	5800008f 	stmdapl	r0, {r0, r1, r2, r3, r7}
 7f0:	01000000 	mrseq	r0, (UNDEF: 0)
 7f4:	0008179c 	muleq	r8, ip, r7
 7f8:	01711e00 	cmneq	r1, r0, lsl #28
 7fc:	18010000 	stmdane	r1, {}	; <UNPREDICTABLE>
 800:	0000020b 	andeq	r0, r0, fp, lsl #4
 804:	000004b0 			; <UNDEFINED> instruction: 0x000004b0
 808:	00021c1d 	andeq	r1, r2, sp, lsl ip
 80c:	171a0100 	ldrne	r0, [sl, -r0, lsl #2]
 810:	02000008 	andeq	r0, r0, #8
 814:	21005091 	swpcs	r5, r1, [r0]
 818:	00000745 	andeq	r0, r0, r5, asr #14
 81c:	00020b0d 	andeq	r0, r2, sp, lsl #22
 820:	00000500 	andeq	r0, r0, r0, lsl #10

Disassembly of section .debug_abbrev:

00000000 <.debug_abbrev>:
   0:	25011101 	strcs	r1, [r1, #-257]	; 0x101
   4:	030b130e 	movweq	r1, #45838	; 0xb30e
   8:	11081b0e 	tstne	r8, lr, lsl #22
   c:	10061201 	andne	r1, r6, r1, lsl #4
  10:	02000017 	andeq	r0, r0, #23
  14:	0b3e0104 	bleq	f8042c <__bss_end__+0xf75d8c>
  18:	13490b0b 	movtne	r0, #39691	; 0x9b0b
  1c:	0b3b0b3a 	bleq	ec2d0c <__bss_end__+0xeb866c>
  20:	00001301 	andeq	r1, r0, r1, lsl #6
  24:	03002803 	movweq	r2, #2051	; 0x803
  28:	000b1c0e 	andeq	r1, fp, lr, lsl #24
  2c:	00240400 	eoreq	r0, r4, r0, lsl #8
  30:	0b3e0b0b 	bleq	f82c64 <__bss_end__+0xf785c4>
  34:	00000e03 	andeq	r0, r0, r3, lsl #28
  38:	03010405 	movweq	r0, #5125	; 0x1405
  3c:	0b0b3e0e 	bleq	2cf87c <__bss_end__+0x2c51dc>
  40:	3a13490b 	bcc	4d2474 <__bss_end__+0x4c7dd4>
  44:	010b3b0b 	tsteq	fp, fp, lsl #22
  48:	06000013 			; <UNDEFINED> instruction: 0x06000013
  4c:	0e030016 	mcreq	0, 0, r0, cr3, cr6, {0}
  50:	0b3b0b3a 	bleq	ec2d40 <__bss_end__+0xeb86a0>
  54:	00001349 	andeq	r1, r0, r9, asr #6
  58:	49003507 	stmdbmi	r0, {r0, r1, r2, r8, sl, ip, sp}
  5c:	08000013 	stmdaeq	r0, {r0, r1, r4}
  60:	0b0b0024 	bleq	2c00f8 <__bss_end__+0x2b5a58>
  64:	08030b3e 	stmdaeq	r3, {r1, r2, r3, r4, r5, r8, r9, fp}
  68:	13090000 	movwne	r0, #36864	; 0x9000
  6c:	0b0e0301 	bleq	380c78 <__bss_end__+0x3765d8>
  70:	3b0b3a0b 	blcc	2ce8a4 <__bss_end__+0x2c4204>
  74:	0013010b 	andseq	r0, r3, fp, lsl #2
  78:	000d0a00 	andeq	r0, sp, r0, lsl #20
  7c:	0b3a0e03 	bleq	e83890 <__bss_end__+0xe791f0>
  80:	13490b3b 	movtne	r0, #39739	; 0x9b3b
  84:	00000b38 	andeq	r0, r0, r8, lsr fp
  88:	03000d0b 	movweq	r0, #3339	; 0xd0b
  8c:	3b0b3a08 	blcc	2ce8b4 <__bss_end__+0x2c4214>
  90:	3813490b 	ldmdacc	r3, {r0, r1, r3, r8, fp, lr}
  94:	0c00000b 	stceq	0, cr0, [r0], {11}
  98:	13490101 	movtne	r0, #37121	; 0x9101
  9c:	00001301 	andeq	r1, r0, r1, lsl #6
  a0:	4900210d 	stmdbmi	r0, {r0, r2, r3, r8, sp}
  a4:	000b2f13 	andeq	r2, fp, r3, lsl pc
  a8:	00340e00 	eorseq	r0, r4, r0, lsl #28
  ac:	0b3a0e03 	bleq	e838c0 <__bss_end__+0xe79220>
  b0:	13490b3b 	movtne	r0, #39739	; 0x9b3b
  b4:	0000061c 	andeq	r0, r0, ip, lsl r6
  b8:	0b000f0f 	bleq	3cfc <_start-0x4304>
  bc:	0013490b 	andseq	r4, r3, fp, lsl #18
  c0:	00261000 	eoreq	r1, r6, r0
  c4:	00001349 	andeq	r1, r0, r9, asr #6
  c8:	3f012e11 	svccc	0x00012e11
  cc:	3a0e0319 	bcc	380d38 <__bss_end__+0x376698>
  d0:	270b3b0b 	strcs	r3, [fp, -fp, lsl #22]
  d4:	12011119 	andne	r1, r1, #1073741830	; 0x40000006
  d8:	97184006 	ldrls	r4, [r8, -r6]
  dc:	13011942 	movwne	r1, #6466	; 0x1942
  e0:	05120000 	ldreq	r0, [r2, #-0]
  e4:	3a080300 	bcc	200cec <__bss_end__+0x1f664c>
  e8:	490b3b0b 	stmdbmi	fp, {r0, r1, r3, r8, r9, fp, ip, sp}
  ec:	00170213 	andseq	r0, r7, r3, lsl r2
  f0:	82891300 	addhi	r1, r9, #0, 6
  f4:	01110101 	tsteq	r1, r1, lsl #2
  f8:	00001331 	andeq	r1, r0, r1, lsr r3
  fc:	01828a14 	orreq	r8, r2, r4, lsl sl
 100:	91180200 	tstls	r8, r0, lsl #4
 104:	00001842 	andeq	r1, r0, r2, asr #16
 108:	03012e15 	movweq	r2, #7701	; 0x1e15
 10c:	3b0b3a0e 	blcc	2ce94c <__bss_end__+0x2c42ac>
 110:	1119270b 	tstne	r9, fp, lsl #14
 114:	40061201 	andmi	r1, r6, r1, lsl #4
 118:	19429718 	stmdbne	r2, {r3, r4, r8, r9, sl, ip, pc}^
 11c:	00001301 	andeq	r1, r0, r1, lsl #6
 120:	03003416 	movweq	r3, #1046	; 0x416
 124:	3b0b3a0e 	blcc	2ce964 <__bss_end__+0x2c42c4>
 128:	0213490b 	andseq	r4, r3, #180224	; 0x2c000
 12c:	17000017 	smladne	r0, r7, r0, r0
 130:	0111010b 	tsteq	r1, fp, lsl #2
 134:	13010612 	movwne	r0, #5650	; 0x1612
 138:	34180000 	ldrcc	r0, [r8], #-0
 13c:	3a080300 	bcc	200d44 <__bss_end__+0x1f66a4>
 140:	490b3b0b 	stmdbmi	fp, {r0, r1, r3, r8, r9, fp, ip, sp}
 144:	00180213 	andseq	r0, r8, r3, lsl r2
 148:	010b1900 	tsteq	fp, r0, lsl #18
 14c:	06120111 			; <UNDEFINED> instruction: 0x06120111
 150:	341a0000 	ldrcc	r0, [sl], #-0
 154:	3a080300 	bcc	200d5c <__bss_end__+0x1f66bc>
 158:	490b3b0b 	stmdbmi	fp, {r0, r1, r3, r8, r9, fp, ip, sp}
 15c:	00170213 	andseq	r0, r7, r3, lsl r2
 160:	012e1b00 	teqeq	lr, r0, lsl #22
 164:	0e03193f 	mcreq	9, 0, r1, cr3, cr15, {1}
 168:	0b3b0b3a 	bleq	ec2e58 <__bss_end__+0xeb87b8>
 16c:	13491927 	movtne	r1, #39207	; 0x9927
 170:	06120111 			; <UNDEFINED> instruction: 0x06120111
 174:	42971840 	addsmi	r1, r7, #64, 16	; 0x400000
 178:	00130119 	andseq	r0, r3, r9, lsl r1
 17c:	82891c00 	addhi	r1, r9, #0, 24
 180:	01110001 	tsteq	r1, r1
 184:	00001331 	andeq	r1, r0, r1, lsr r3
 188:	0300341d 	movweq	r3, #1053	; 0x41d
 18c:	3b0b3a0e 	blcc	2ce9cc <__bss_end__+0x2c432c>
 190:	0213490b 	andseq	r4, r3, #180224	; 0x2c000
 194:	1e000018 	mcrne	0, 0, r0, cr0, cr8, {0}
 198:	0e030005 	cdpeq	0, 0, cr0, cr3, cr5, {0}
 19c:	0b3b0b3a 	bleq	ec2e8c <__bss_end__+0xeb87ec>
 1a0:	17021349 	strne	r1, [r2, -r9, asr #6]
 1a4:	891f0000 	ldmdbhi	pc, {}	; <UNPREDICTABLE>
 1a8:	11010182 	smlabbne	r1, r2, r1, r0
 1ac:	01133101 	tsteq	r3, r1, lsl #2
 1b0:	20000013 	andcs	r0, r0, r3, lsl r0
 1b4:	0e03012e 	adfeqsp	f0, f3, #0.5
 1b8:	0b3b0b3a 	bleq	ec2ea8 <__bss_end__+0xeb8808>
 1bc:	13491927 	movtne	r1, #39207	; 0x9927
 1c0:	06120111 			; <UNDEFINED> instruction: 0x06120111
 1c4:	42971840 	addsmi	r1, r7, #64, 16	; 0x400000
 1c8:	00130119 	andseq	r0, r3, r9, lsl r1
 1cc:	01012100 	mrseq	r2, (UNDEF: 17)
 1d0:	00001349 	andeq	r1, r0, r9, asr #6
	...

Disassembly of section .debug_loc:

00000000 <.debug_loc>:
   0:	000004f8 	strdeq	r0, [r0], -r8
   4:	0000050b 	andeq	r0, r0, fp, lsl #10
   8:	0b500001 	bleq	1400014 <__bss_end__+0x13f5974>
   c:	18000005 	stmdane	r0, {r0, r2}
  10:	04000005 	streq	r0, [r0], #-5
  14:	5001f300 	andpl	pc, r1, r0, lsl #6
  18:	0000009f 	muleq	r0, pc, r0	; <UNPREDICTABLE>
  1c:	00000000 	andeq	r0, r0, r0
  20:	0004c000 	andeq	ip, r4, r0
  24:	0004d300 	andeq	sp, r4, r0, lsl #6
  28:	50000100 	andpl	r0, r0, r0, lsl #2
  2c:	000004d3 	ldrdeq	r0, [r0], -r3
  30:	000004e0 	andeq	r0, r0, r0, ror #9
  34:	01f30004 	mvnseq	r0, r4
  38:	00009f50 	andeq	r9, r0, r0, asr pc
  3c:	00000000 	andeq	r0, r0, r0
  40:	04880000 	streq	r0, [r8], #0
  44:	049b0000 	ldreq	r0, [fp], #0
  48:	00010000 	andeq	r0, r1, r0
  4c:	00049b50 	andeq	r9, r4, r0, asr fp
  50:	0004a800 	andeq	sl, r4, r0, lsl #16
  54:	f3000400 	vshl.u8	d0, d0, d0
  58:	009f5001 	addseq	r5, pc, r1
  5c:	00000000 	andeq	r0, r0, r0
  60:	84000000 	strhi	r0, [r0], #-0
  64:	a4000000 	strge	r0, [r0], #-0
  68:	01000000 	mrseq	r0, (UNDEF: 0)
  6c:	00a45000 	adceq	r5, r4, r0
  70:	01280000 	teqeq	r8, r0
  74:	00040000 	andeq	r0, r4, r0
  78:	9f5001f3 	svcls	0x005001f3
	...
  84:	00000084 	andeq	r0, r0, r4, lsl #1
  88:	000000e0 	andeq	r0, r0, r0, ror #1
  8c:	e0510001 	subs	r0, r1, r1
  90:	28000000 	stmdacs	r0, {}	; <UNPREDICTABLE>
  94:	04000001 	streq	r0, [r0], #-1
  98:	5101f300 	mrspl	pc, SP_irq	; <UNPREDICTABLE>
  9c:	0000009f 	muleq	r0, pc, r0	; <UNPREDICTABLE>
  a0:	00000000 	andeq	r0, r0, r0
  a4:	0000a000 	andeq	sl, r0, r0
  a8:	00010c00 	andeq	r0, r1, r0, lsl #24
  ac:	52000100 	andpl	r0, r0, #0, 2
  b0:	0000010c 	andeq	r0, r0, ip, lsl #2
  b4:	00000118 	andeq	r0, r0, r8, lsl r1
  b8:	5a720003 	bpl	1c800cc <__bss_end__+0x1c75a2c>
  bc:	0000009f 	muleq	r0, pc, r0	; <UNPREDICTABLE>
  c0:	00000000 	andeq	r0, r0, r0
  c4:	0000a400 	andeq	sl, r0, r0, lsl #8
  c8:	0000d800 	andeq	sp, r0, r0, lsl #16
  cc:	50000100 	andpl	r0, r0, r0, lsl #2
  d0:	000000d8 	ldrdeq	r0, [r0], -r8
  d4:	00000118 	andeq	r0, r0, r8, lsl r1
  d8:	01f30006 	mvnseq	r0, r6
  dc:	9f1a4f50 	svcls	0x001a4f50
	...
  e8:	00000424 	andeq	r0, r0, r4, lsr #8
  ec:	00000444 	andeq	r0, r0, r4, asr #8
  f0:	44500001 	ldrbmi	r0, [r0], #-1
  f4:	70000004 	andvc	r0, r0, r4
  f8:	01000004 	tsteq	r0, r4
  fc:	04705500 	ldrbteq	r5, [r0], #-1280	; 0x500
 100:	04740000 	ldrbteq	r0, [r4], #-0
 104:	00040000 	andeq	r0, r4, r0
 108:	9f5001f3 	svcls	0x005001f3
	...
 114:	00000444 	andeq	r0, r0, r4, asr #8
 118:	00000468 	andeq	r0, r0, r8, ror #8
 11c:	00540001 	subseq	r0, r4, r1
 120:	00000000 	andeq	r0, r0, r0
 124:	b8000000 	stmdalt	r0, {}	; <UNPREDICTABLE>
 128:	d4000003 	strle	r0, [r0], #-3
 12c:	01000003 	tsteq	r0, r3
 130:	03d45000 	bicseq	r5, r4, #0
 134:	03e00000 	mvneq	r0, #0
 138:	00010000 	andeq	r0, r1, r0
 13c:	0003e054 	andeq	lr, r3, r4, asr r0
 140:	0003e400 	andeq	lr, r3, r0, lsl #8
 144:	f3000400 	vshl.u8	d0, d0, d0
 148:	e49f5001 	ldr	r5, [pc], #1	; 150 <_start-0x7eb0>
 14c:	e7000003 	str	r0, [r0, -r3]
 150:	01000003 	tsteq	r0, r3
 154:	03e75000 	mvneq	r5, #0
 158:	03fc0000 	mvnseq	r0, #0
 15c:	00010000 	andeq	r0, r1, r0
 160:	00000054 	andeq	r0, r0, r4, asr r0
 164:	00000000 	andeq	r0, r0, r0
 168:	0003e800 	andeq	lr, r3, r0, lsl #16
 16c:	0003f400 	andeq	pc, r3, r0, lsl #8
 170:	50000100 	andpl	r0, r0, r0, lsl #2
	...
 17c:	0000022c 	andeq	r0, r0, ip, lsr #4
 180:	00000240 	andeq	r0, r0, r0, asr #4
 184:	40500001 	subsmi	r0, r0, r1
 188:	4c000002 	stcmi	0, cr0, [r0], {2}
 18c:	04000002 	streq	r0, [r0], #-2
 190:	5001f300 	andpl	pc, r1, r0, lsl #6
 194:	00024c9f 	muleq	r2, pc, ip	; <UNPREDICTABLE>
 198:	00025700 	andeq	r5, r2, r0, lsl #14
 19c:	50000100 	andpl	r0, r0, r0, lsl #2
 1a0:	00000257 	andeq	r0, r0, r7, asr r2
 1a4:	0000027c 	andeq	r0, r0, ip, ror r2
 1a8:	01f30004 	mvnseq	r0, r4
 1ac:	00009f50 	andeq	r9, r0, r0, asr pc
 1b0:	00000000 	andeq	r0, r0, r0
 1b4:	02500000 	subseq	r0, r0, #0
 1b8:	026c0000 	rsbeq	r0, ip, #0
 1bc:	00010000 	andeq	r0, r1, r0
 1c0:	00026c54 	andeq	r6, r2, r4, asr ip
 1c4:	00027c00 	andeq	r7, r2, r0, lsl #24
 1c8:	74000300 	strvc	r0, [r0], #-768	; 0x300
 1cc:	00009f70 	andeq	r9, r0, r0, ror pc
 1d0:	00000000 	andeq	r0, r0, r0
 1d4:	01c40000 	biceq	r0, r4, r0
 1d8:	01e00000 	mvneq	r0, r0
 1dc:	00010000 	andeq	r0, r1, r0
 1e0:	0001e050 	andeq	lr, r1, r0, asr r0
 1e4:	00020800 	andeq	r0, r2, r0, lsl #16
 1e8:	f3000400 	vshl.u8	d0, d0, d0
 1ec:	089f5001 	ldmeq	pc, {r0, ip, lr}	; <UNPREDICTABLE>
 1f0:	0c000002 	stceq	0, cr0, [r0], {2}
 1f4:	01000002 	tsteq	r0, r2
 1f8:	020c5000 	andeq	r5, ip, #0
 1fc:	02140000 	andseq	r0, r4, #0
 200:	00040000 	andeq	r0, r4, r0
 204:	9f5001f3 	svcls	0x005001f3
	...
 210:	000001dc 	ldrdeq	r0, [r0], -ip
 214:	000001e4 	andeq	r0, r0, r4, ror #3
 218:	e4530001 	ldrb	r0, [r3], #-1
 21c:	ec000001 	stc	0, cr0, [r0], {1}
 220:	03000001 	movweq	r0, #1
 224:	9f707300 	svcls	0x00707300
 228:	000001ec 	andeq	r0, r0, ip, ror #3
 22c:	000001fc 	strdeq	r0, [r0], -ip
 230:	01f30006 	mvnseq	r0, r6
 234:	9f253550 	svcls	0x00253550
	...
 240:	000001e0 	andeq	r0, r0, r0, ror #3
 244:	000001f8 	strdeq	r0, [r0], -r8
 248:	f8500001 			; <UNDEFINED> instruction: 0xf8500001
 24c:	fc000001 	stc2	0, cr0, [r0], {1}
 250:	06000001 	streq	r0, [r0], -r1
 254:	5001f300 	andpl	pc, r1, r0, lsl #6
 258:	009f1a4f 	addseq	r1, pc, pc, asr #20
 25c:	00000000 	andeq	r0, r0, r0
 260:	78000000 	stmdavc	r0, {}	; <UNPREDICTABLE>
 264:	8b000003 	blhi	278 <_start-0x7d88>
 268:	01000003 	tsteq	r0, r3
 26c:	038b5000 	orreq	r5, fp, #0
 270:	03980000 	orrseq	r0, r8, #0
 274:	00040000 	andeq	r0, r4, r0
 278:	9f5001f3 	svcls	0x005001f3
	...
 284:	00000378 	andeq	r0, r0, r8, ror r3
 288:	0000038b 	andeq	r0, r0, fp, lsl #7
 28c:	8b510001 	blhi	1440298 <__bss_end__+0x1435bf8>
 290:	98000003 	stmdals	r0, {r0, r1}
 294:	04000003 	streq	r0, [r0], #-3
 298:	5101f300 	mrspl	pc, SP_irq	; <UNPREDICTABLE>
 29c:	0000009f 	muleq	r0, pc, r0	; <UNPREDICTABLE>
 2a0:	00000000 	andeq	r0, r0, r0
 2a4:	00033800 	andeq	r3, r3, r0, lsl #16
 2a8:	00034b00 	andeq	r4, r3, r0, lsl #22
 2ac:	50000100 	andpl	r0, r0, r0, lsl #2
 2b0:	0000034b 	andeq	r0, r0, fp, asr #6
 2b4:	00000358 	andeq	r0, r0, r8, asr r3
 2b8:	01f30004 	mvnseq	r0, r4
 2bc:	00009f50 	andeq	r9, r0, r0, asr pc
 2c0:	00000000 	andeq	r0, r0, r0
 2c4:	03380000 	teqeq	r8, #0
 2c8:	034b0000 	movteq	r0, #45056	; 0xb000
 2cc:	00010000 	andeq	r0, r1, r0
 2d0:	00034b51 	andeq	r4, r3, r1, asr fp
 2d4:	00035800 	andeq	r5, r3, r0, lsl #16
 2d8:	f3000400 	vshl.u8	d0, d0, d0
 2dc:	009f5101 	addseq	r5, pc, r1, lsl #2
 2e0:	00000000 	andeq	r0, r0, r0
 2e4:	48000000 	stmdami	r0, {}	; <UNPREDICTABLE>
 2e8:	5c000001 	stcpl	0, cr0, [r0], {1}
 2ec:	01000001 	tsteq	r0, r1
 2f0:	015c5000 	cmpeq	ip, r0
 2f4:	01840000 	orreq	r0, r4, r0
 2f8:	00010000 	andeq	r0, r1, r0
 2fc:	00018454 	andeq	r8, r1, r4, asr r4
 300:	0001a400 	andeq	sl, r1, r0, lsl #8
 304:	f3000400 	vshl.u8	d0, d0, d0
 308:	a49f5001 	ldrge	r5, [pc], #1	; 310 <_start-0x7cf0>
 30c:	ac000001 	stcge	0, cr0, [r0], {1}
 310:	01000001 	tsteq	r0, r1
 314:	00005400 	andeq	r5, r0, r0, lsl #8
 318:	00000000 	andeq	r0, r0, r0
 31c:	01480000 	mrseq	r0, (UNDEF: 72)
 320:	015f0000 	cmpeq	pc, r0
 324:	00010000 	andeq	r0, r1, r0
 328:	00015f51 	andeq	r5, r1, r1, asr pc
 32c:	0001ac00 	andeq	sl, r1, r0, lsl #24
 330:	f3000400 	vshl.u8	d0, d0, d0
 334:	009f5101 	addseq	r5, pc, r1, lsl #2
 338:	00000000 	andeq	r0, r0, r0
 33c:	60000000 	andvs	r0, r0, r0
 340:	68000001 	stmdavs	r0, {r0}
 344:	01000001 	tsteq	r0, r1
 348:	01685000 	cmneq	r8, r0
 34c:	01880000 	orreq	r0, r8, r0
 350:	00010000 	andeq	r0, r1, r0
 354:	0001a453 	andeq	sl, r1, r3, asr r4
 358:	0001ac00 	andeq	sl, r1, r0, lsl #24
 35c:	53000100 	movwpl	r0, #256	; 0x100
	...
 368:	00000180 	andeq	r0, r0, r0, lsl #3
 36c:	0000018c 	andeq	r0, r0, ip, lsl #3
 370:	8c520001 	mrrchi	0, 0, r0, r2, cr1
 374:	98000001 	stmdals	r0, {r0}
 378:	06000001 	streq	r0, [r0], -r1
 37c:	5001f300 	andpl	pc, r1, r0, lsl #6
 380:	009f2535 	addseq	r2, pc, r5, lsr r5	; <UNPREDICTABLE>
 384:	00000000 	andeq	r0, r0, r0
 388:	84000000 	strhi	r0, [r0], #-0
 38c:	98000001 	stmdals	r0, {r0}
 390:	01000001 	tsteq	r0, r1
 394:	00005400 	andeq	r5, r0, r0, lsl #8
 398:	00000000 	andeq	r0, r0, r0
 39c:	02940000 	addseq	r0, r4, #0
 3a0:	02ac0000 	adceq	r0, ip, #0
 3a4:	00010000 	andeq	r0, r1, r0
 3a8:	0002ac50 	andeq	sl, r2, r0, asr ip
 3ac:	0002fc00 	andeq	pc, r2, r0, lsl #24
 3b0:	54000100 	strpl	r0, [r0], #-256	; 0x100
 3b4:	000002fc 	strdeq	r0, [r0], -ip
 3b8:	00000300 	andeq	r0, r0, r0, lsl #6
 3bc:	01f30004 	mvnseq	r0, r4
 3c0:	03009f50 	movweq	r9, #3920	; 0xf50
 3c4:	03140000 	tsteq	r4, #0
 3c8:	00010000 	andeq	r0, r1, r0
 3cc:	00000054 	andeq	r0, r0, r4, asr r0
 3d0:	00000000 	andeq	r0, r0, r0
 3d4:	00029400 	andeq	r9, r2, r0, lsl #8
 3d8:	0002af00 	andeq	sl, r2, r0, lsl #30
 3dc:	51000100 	mrspl	r0, (UNDEF: 16)
 3e0:	000002af 	andeq	r0, r0, pc, lsr #5
 3e4:	00000314 	andeq	r0, r0, r4, lsl r3
 3e8:	01f30004 	mvnseq	r0, r4
 3ec:	00009f51 	andeq	r9, r0, r1, asr pc
 3f0:	00000000 	andeq	r0, r0, r0
 3f4:	02940000 	addseq	r0, r4, #0
 3f8:	02af0000 	adceq	r0, pc, #0
 3fc:	00010000 	andeq	r0, r1, r0
 400:	0002af52 	andeq	sl, r2, r2, asr pc
 404:	0002fc00 	andeq	pc, r2, r0, lsl #24
 408:	55000100 	strpl	r0, [r0, #-256]	; 0x100
 40c:	000002fc 	strdeq	r0, [r0], -ip
 410:	00000300 	andeq	r0, r0, r0, lsl #6
 414:	01f30004 	mvnseq	r0, r4
 418:	03009f52 	movweq	r9, #3922	; 0xf52
 41c:	03140000 	tsteq	r4, #0
 420:	00010000 	andeq	r0, r1, r0
 424:	00000055 	andeq	r0, r0, r5, asr r0
 428:	00000000 	andeq	r0, r0, r0
 42c:	0002b000 	andeq	fp, r2, r0
 430:	0002b800 	andeq	fp, r2, r0, lsl #16
 434:	50000100 	andpl	r0, r0, r0, lsl #2
 438:	000002b8 			; <UNDEFINED> instruction: 0x000002b8
 43c:	000002f3 	strdeq	r0, [r0], -r3
 440:	00530001 	subseq	r0, r3, r1
 444:	14000003 	strne	r0, [r0], #-3
 448:	01000003 	tsteq	r0, r3
 44c:	00005300 	andeq	r5, r0, r0, lsl #6
 450:	00000000 	andeq	r0, r0, r0
 454:	02d00000 	sbcseq	r0, r0, #0
 458:	02f30000 	rscseq	r0, r3, #0
 45c:	00010000 	andeq	r0, r1, r0
 460:	0002f352 	andeq	pc, r2, r2, asr r3	; <UNPREDICTABLE>
 464:	0002f400 	andeq	pc, r2, r0, lsl #8
 468:	74000500 	strvc	r0, [r0], #-1280	; 0x500
 46c:	9f253500 	svcls	0x00253500
 470:	00000300 	andeq	r0, r0, r0, lsl #6
 474:	00000314 	andeq	r0, r0, r4, lsl r3
 478:	00520001 	subseq	r0, r2, r1
 47c:	00000000 	andeq	r0, r0, r0
 480:	d4000000 	strle	r0, [r0], #-0
 484:	f0000002 			; <UNDEFINED> instruction: 0xf0000002
 488:	01000002 	tsteq	r0, r2
 48c:	02f05000 	rscseq	r5, r0, #0
 490:	02f40000 	rscseq	r0, r4, #0
 494:	00050000 	andeq	r0, r5, r0
 498:	1a4f0074 	bne	13c0670 <__bss_end__+0x13b5fd0>
 49c:	0003009f 	muleq	r3, pc, r0	; <UNPREDICTABLE>
 4a0:	00031400 	andeq	r1, r3, r0, lsl #8
 4a4:	50000100 	andpl	r0, r0, r0, lsl #2
	...
 4b0:	00000018 	andeq	r0, r0, r8, lsl r0
 4b4:	00000038 	andeq	r0, r0, r8, lsr r0
 4b8:	38500001 	ldmdacc	r0, {r0}^
 4bc:	54000000 	strpl	r0, [r0], #-0
 4c0:	01000000 	mrseq	r0, (UNDEF: 0)
 4c4:	00545400 	subseq	r5, r4, r0, lsl #8
 4c8:	00640000 	rsbeq	r0, r4, r0
 4cc:	00040000 	andeq	r0, r4, r0
 4d0:	9f5001f3 	svcls	0x005001f3
 4d4:	00000064 	andeq	r0, r0, r4, rrx
 4d8:	00000070 	andeq	r0, r0, r0, ror r0
 4dc:	00540001 	subseq	r0, r4, r1
 4e0:	00000000 	andeq	r0, r0, r0
 4e4:	Address 0x00000000000004e4 is out of bounds.


Disassembly of section .debug_aranges:

00000000 <.debug_aranges>:
   0:	0000001c 	andeq	r0, r0, ip, lsl r0
   4:	00000002 	andeq	r0, r0, r2
   8:	00040000 	andeq	r0, r4, r0
   c:	00000000 	andeq	r0, r0, r0
  10:	00008fcc 	andeq	r8, r0, ip, asr #31
  14:	00000518 	andeq	r0, r0, r8, lsl r5
	...

Disassembly of section .debug_line:

00000000 <.debug_line>:
   0:	00000134 	andeq	r0, r0, r4, lsr r1
   4:	00870002 	addeq	r0, r7, r2
   8:	01020000 	mrseq	r0, (UNDEF: 2)
   c:	000d0efb 	strdeq	r0, [sp], -fp
  10:	01010101 	tsteq	r1, r1, lsl #2
  14:	01000000 	mrseq	r0, (UNDEF: 0)
  18:	2f010000 	svccs	0x00010000
  1c:	2f727375 	svccs	0x00727375
  20:	2f62696c 	svccs	0x0062696c
  24:	2f636367 	svccs	0x00636367
  28:	2d6d7261 	sfmcs	f7, 2, [sp, #-388]!	; 0xfffffe7c
  2c:	656e6f6e 	strbvs	r6, [lr, #-3950]!	; 0xf6e
  30:	6261652d 	rsbvs	r6, r1, #188743680	; 0xb400000
  34:	2e372f69 	cdpcs	15, 3, cr2, cr7, cr9, {3}
  38:	2f312e32 	svccs	0x00312e32
  3c:	6c636e69 	stclvs	14, cr6, [r3], #-420	; 0xfffffe5c
  40:	00656475 	rsbeq	r6, r5, r5, ror r4
  44:	69706700 	ldmdbvs	r0!, {r8, r9, sl, sp, lr}^
  48:	7478656f 	ldrbtvc	r6, [r8], #-1391	; 0x56f
  4c:	632e6172 	teqvs	lr, #-2147483620	; 0x8000001c
  50:	00000000 	andeq	r0, r0, r0
  54:	6970675f 	ldmdbvs	r0!, {r0, r1, r2, r3, r4, r6, r8, r9, sl, sp, lr}^
  58:	72705f6f 	rsbsvc	r5, r0, #444	; 0x1bc
  5c:	74617669 	strbtvc	r7, [r1], #-1641	; 0x669
  60:	00682e65 	rsbeq	r2, r8, r5, ror #28
  64:	67000000 	strvs	r0, [r0, -r0]
  68:	2e6f6970 	mcrcs	9, 3, r6, cr15, cr0, {3}
  6c:	00000068 	andeq	r0, r0, r8, rrx
  70:	69706700 	ldmdbvs	r0!, {r8, r9, sl, sp, lr}^
  74:	7478656f 	ldrbtvc	r6, [r8], #-1391	; 0x56f
  78:	682e6172 	stmdavs	lr!, {r1, r4, r5, r6, r8, sp, lr}
  7c:	00000000 	andeq	r0, r0, r0
  80:	69647473 	stmdbvs	r4!, {r0, r1, r4, r5, r6, sl, ip, sp, lr}^
  84:	672d746e 	strvs	r7, [sp, -lr, ror #8]!
  88:	682e6363 	stmdavs	lr!, {r0, r1, r5, r6, r8, r9, sp, lr}
  8c:	00000100 	andeq	r0, r0, r0, lsl #2
  90:	02050000 	andeq	r0, r5, #0
  94:	00008fe4 	andeq	r8, r0, r4, ror #31
  98:	9f011803 	svcls	0x00011803
  9c:	64674bbc 	strbtvs	r4, [r7], #-3004	; 0xbbc
  a0:	f200ed03 	vadd.f32	d14, d0, d3
  a4:	302f4e83 	eorcc	r4, pc, r3, lsl #29
  a8:	0402004b 	streq	r0, [r2], #-75	; 0x4b
  ac:	00660603 	rsbeq	r0, r6, r3, lsl #12
  b0:	66010402 	strvs	r0, [r1], -r2, lsl #8
  b4:	009f6806 	addseq	r6, pc, r6, lsl #16
  b8:	06030402 	streq	r0, [r3], -r2, lsl #8
  bc:	04020066 	streq	r0, [r2], #-102	; 0x66
  c0:	68066601 	stmdavs	r6, {r0, r9, sl, sp, lr}
  c4:	7f9a0383 	svcvc	0x009a0383
  c8:	4c837408 	cfstrsmi	mvf7, [r3], {8}
  cc:	9f2f2fda 	svcls	0x002f2fda
  d0:	03667a03 	cmneq	r6, #12288	; 0x3000
  d4:	4e67f213 	mcrmi	2, 3, pc, cr7, cr3, {0}	; <UNPREDICTABLE>
  d8:	03d72f2f 	bicseq	r2, r7, #47, 30	; 0xbc
  dc:	0903667a 	stmdbeq	r3, {r1, r3, r4, r5, r6, r9, sl, sp, lr}
  e0:	52672008 	rsbpl	r2, r7, #8
  e4:	672f2f62 	strvs	r2, [pc, -r2, ror #30]!
  e8:	90084503 	andls	r4, r8, r3, lsl #10
  ec:	2fda4c9f 	svccs	0x00da4c9f
  f0:	4b854b2f 	blmi	fe152db4 <__bss_end__+0xfe148714>
  f4:	08120364 	ldmdaeq	r2, {r2, r5, r6, r8, r9}
  f8:	084b67ac 	stmdaeq	fp, {r2, r3, r5, r7, r8, r9, sl, sp, lr}^
  fc:	034b675b 	movteq	r6, #46939	; 0xb75b
 100:	8358081a 	cmphi	r8, #1703936	; 0x1a0000
 104:	2f7f344b 	svccs	0x007f344b
 108:	01040200 	mrseq	r0, R12_usr
 10c:	08064a06 	stmdaeq	r6, {r1, r2, r9, fp, lr}
 110:	004d8395 	umaaleq	r8, sp, r5, r3
 114:	4b030402 	blmi	c1124 <__bss_end__+0xb6a84>
 118:	03040200 	movweq	r0, #16896	; 0x4200
 11c:	04020081 	streq	r0, [r2], #-129	; 0x81
 120:	062e0601 	strteq	r0, [lr], -r1, lsl #12
 124:	29034b4c 	stmdbcs	r3, {r2, r3, r6, r8, r9, fp, lr}
 128:	084b67f2 	stmdaeq	fp, {r1, r4, r5, r6, r7, r8, r9, sl, sp, lr}^
 12c:	084b6723 	stmdaeq	fp, {r0, r1, r5, r8, r9, sl, sp, lr}^
 130:	024b6723 	subeq	r6, fp, #9175040	; 0x8c0000
 134:	01010006 	tsteq	r1, r6

Disassembly of section .debug_str:

00000000 <.debug_str>:
   0:	6f697067 	svcvs	0x00697067
   4:	656c635f 	strbvs	r6, [ip, #-863]!	; 0x35f
   8:	655f7261 	ldrbvs	r7, [pc, #-609]	; fffffdaf <__bss_end__+0xffff570f>
   c:	746e6576 	strbtvc	r6, [lr], #-1398	; 0x576
  10:	65726100 	ldrbvs	r6, [r2, #-256]!	; 0x100
  14:	7067006e 	rsbvc	r0, r7, lr, rrx
  18:	735f6f69 	cmpvc	pc, #420	; 0x1a4
  1c:	705f7465 	subsvc	r7, pc, r5, ror #8
  20:	756c6c75 	strbvc	r6, [ip, #-3189]!	; 0xc75
  24:	70670070 	rsbvc	r0, r7, r0, ror r0
  28:	655f6f69 	ldrbvs	r6, [pc, #-3945]	; fffff0c7 <__bss_end__+0xffff4a27>
  2c:	6c62616e 	stfvse	f6, [r2], #-440	; 0xfffffe48
  30:	76655f65 	strbtvc	r5, [r5], -r5, ror #30
  34:	5f746e65 	svcpl	0x00746e65
  38:	65746564 	ldrbvs	r6, [r4, #-1380]!	; 0x564
  3c:	6f697463 	svcvs	0x00697463
  40:	7067006e 	rsbvc	r0, r7, lr, rrx
  44:	725f6f69 	subsvc	r6, pc, #420	; 0x1a4
  48:	665f6765 	ldrbvs	r6, [pc], -r5, ror #14
  4c:	655f726f 	ldrbvs	r7, [pc, #-623]	; fffffde5 <__bss_end__+0xffff5745>
  50:	746e6576 	strbtvc	r6, [lr], #-1398	; 0x576
  54:	69706700 	ldmdbvs	r0!, {r8, r9, sl, sp, lr}^
  58:	76655f6f 	strbtvc	r5, [r5], -pc, ror #30
  5c:	00746e65 	rsbseq	r6, r4, r5, ror #28
  60:	726f6873 	rsbvc	r6, pc, #7536640	; 0x730000
  64:	6e692074 	mcrvs	0, 3, r2, cr9, cr4, {3}
  68:	73660074 	cmnvc	r6, #116	; 0x74
  6c:	47006c65 	strmi	r6, [r0, -r5, ror #24]
  70:	5f4f4950 	svcpl	0x004f4950
  74:	45544544 	ldrbmi	r4, [r4, #-1348]	; 0x544
  78:	415f5443 	cmpmi	pc, r3, asr #8
  7c:	434e5953 	movtmi	r5, #59731	; 0xe953
  80:	4c41465f 	mcrrmi	6, 5, r4, r1, cr15
  84:	474e494c 	strbmi	r4, [lr, -ip, asr #18]
  88:	4744455f 	smlsldmi	r4, r4, pc, r5	; <UNPREDICTABLE>
  8c:	70670045 	rsbvc	r0, r7, r5, asr #32
  90:	635f6f69 	cmpvs	pc, #420	; 0x1a4
  94:	6b636568 	blvs	18d963c <__bss_end__+0x18cef9c>
  98:	646e615f 	strbtvs	r6, [lr], #-351	; 0x15f
  9c:	656c635f 	strbvs	r6, [ip, #-863]!	; 0x35f
  a0:	655f7261 	ldrbvs	r7, [pc, #-609]	; fffffe47 <__bss_end__+0xffff57a7>
  a4:	746e6576 	strbtvc	r6, [lr], #-1398	; 0x576
  a8:	616e6500 	cmnvs	lr, r0, lsl #10
  ac:	64656c62 	strbtvs	r6, [r5], #-3170	; 0xc62
  b0:	69706700 	ldmdbvs	r0!, {r8, r9, sl, sp, lr}^
  b4:	69645f6f 	stmdbvs	r4!, {r0, r1, r2, r3, r5, r6, r8, r9, sl, fp, ip, lr}^
  b8:	6c626173 	stfvse	f6, [r2], #-460	; 0xfffffe34
  bc:	6c615f65 	stclvs	15, cr5, [r1], #-404	; 0xfffffe6c
  c0:	76655f6c 	strbtvc	r5, [r5], -ip, ror #30
  c4:	5f746e65 	svcpl	0x00746e65
  c8:	65746564 	ldrbvs	r6, [r4, #-1380]!	; 0x564
  cc:	6f697463 	svcvs	0x00697463
  d0:	5047006e 	subpl	r0, r7, lr, rrx
  d4:	505f4f49 	subspl	r4, pc, r9, asr #30
  d8:	30334e49 	eorscc	r4, r3, r9, asr #28
  dc:	49504700 	ldmdbmi	r0, {r8, r9, sl, lr}^
  e0:	49505f4f 	ldmdbmi	r0, {r0, r1, r2, r3, r6, r8, r9, sl, fp, ip, lr}^
  e4:	0031334e 	eorseq	r3, r1, lr, asr #6
  e8:	4f495047 	svcmi	0x00495047
  ec:	4e49505f 	mcrmi	0, 2, r5, cr9, cr15, {2}
  f0:	47003233 	smladxmi	r0, r3, r2, r3
  f4:	5f4f4950 	svcpl	0x004f4950
  f8:	334e4950 	movtcc	r4, #59728	; 0xe950
  fc:	50470033 	subpl	r0, r7, r3, lsr r0
 100:	505f4f49 	subspl	r4, pc, r9, asr #30
 104:	34334e49 	ldrtcc	r4, [r3], #-3657	; 0xe49
 108:	49504700 	ldmdbmi	r0, {r8, r9, sl, lr}^
 10c:	49505f4f 	ldmdbmi	r0, {r0, r1, r2, r3, r6, r8, r9, sl, fp, ip, lr}^
 110:	0035334e 	eorseq	r3, r5, lr, asr #6
 114:	4f495047 	svcmi	0x00495047
 118:	4e49505f 	mcrmi	0, 2, r5, cr9, cr15, {2}
 11c:	47003633 	smladxmi	r0, r3, r6, r3
 120:	5f4f4950 	svcpl	0x004f4950
 124:	334e4950 	movtcc	r4, #59728	; 0xe950
 128:	50470037 	subpl	r0, r7, r7, lsr r0
 12c:	505f4f49 	subspl	r4, pc, r9, asr #30
 130:	38334e49 	ldmdacc	r3!, {r0, r3, r6, r9, sl, fp, lr}
 134:	49504700 	ldmdbmi	r0, {r8, r9, sl, lr}^
 138:	49505f4f 	ldmdbmi	r0, {r0, r1, r2, r3, r6, r8, r9, sl, fp, ip, lr}^
 13c:	0039334e 	eorseq	r3, r9, lr, asr #6
 140:	4f495047 	svcmi	0x00495047
 144:	5445445f 	strbpl	r4, [r5], #-1119	; 0x45f
 148:	5f544345 	svcpl	0x00544345
 14c:	49534952 	ldmdbmi	r3, {r1, r4, r6, r8, fp, lr}^
 150:	455f474e 	ldrbmi	r4, [pc, #-1870]	; fffffa0a <__bss_end__+0xffff536a>
 154:	00454744 	subeq	r4, r5, r4, asr #14
 158:	4f495047 	svcmi	0x00495047
 15c:	4e49505f 	mcrmi	0, 2, r5, cr9, cr15, {2}
 160:	53414c5f 	movtpl	r4, #7263	; 0x1c5f
 164:	70670054 	rsbvc	r0, r7, r4, asr r0
 168:	635f6f69 	cmpvs	pc, #420	; 0x1a4
 16c:	6b636568 	blvs	18d9714 <__bss_end__+0x18cf074>
 170:	6576655f 	ldrbvs	r6, [r6, #-1375]!	; 0x55f
 174:	7000746e 	andvc	r7, r0, lr, ror #8
 178:	6c636475 	cfstrdvs	mvd6, [r3], #-468	; 0xfffffe2c
 17c:	7067006b 	rsbvc	r0, r7, fp, rrx
 180:	735f6f69 	cmpvc	pc, #420	; 0x1a4
 184:	705f7465 	subsvc	r7, pc, r5, ror #8
 188:	646c6c75 	strbtvs	r6, [ip], #-3189	; 0xc75
 18c:	006e776f 	rsbeq	r7, lr, pc, ror #14
 190:	676e6f6c 	strbvs	r6, [lr, -ip, ror #30]!
 194:	6e6f6c20 	cdpvs	12, 6, cr6, cr15, cr0, {1}
 198:	6e692067 	cdpvs	0, 6, cr2, cr9, cr7, {3}
 19c:	4e470074 	mcrmi	0, 2, r0, cr7, cr4, {3}
 1a0:	39432055 	stmdbcc	r3, {r0, r2, r4, r6, sp}^
 1a4:	2e372039 	mrccs	0, 1, r2, cr7, cr9, {1}
 1a8:	20312e32 	eorscs	r2, r1, r2, lsr lr
 1ac:	37313032 			; <UNDEFINED> instruction: 0x37313032
 1b0:	34303930 	ldrtcc	r3, [r0], #-2352	; 0x930
 1b4:	65722820 	ldrbvs	r2, [r2, #-2080]!	; 0x820
 1b8:	7361656c 	cmnvc	r1, #108, 10	; 0x1b000000
 1bc:	5b202965 	blpl	80a758 <__bss_end__+0x8000b8>
 1c0:	2f4d5241 	svccs	0x004d5241
 1c4:	65626d65 	strbvs	r6, [r2, #-3429]!	; 0xd65
 1c8:	64656464 	strbtvs	r6, [r5], #-1124	; 0x464
 1cc:	622d372d 	eorvs	r3, sp, #11796480	; 0xb40000
 1d0:	636e6172 	cmnvs	lr, #-2147483620	; 0x8000001c
 1d4:	65722068 	ldrbvs	r2, [r2, #-104]!	; 0x68
 1d8:	69736976 	ldmdbvs	r3!, {r1, r2, r4, r5, r6, r8, fp, sp, lr}^
 1dc:	32206e6f 	eorcc	r6, r0, #1776	; 0x6f0
 1e0:	30323535 	eorscc	r3, r2, r5, lsr r5
 1e4:	67005d34 	smladxvs	r0, r4, sp, r5
 1e8:	5f6f6970 	svcpl	0x006f6970
 1ec:	5f746567 	svcpl	0x00746567
 1f0:	6e657665 	cdpvs	6, 6, cr7, cr5, cr5, {3}
 1f4:	65645f74 	strbvs	r5, [r4, #-3956]!	; 0xf74
 1f8:	74636574 	strbtvc	r6, [r3], #-1396	; 0x574
 1fc:	006e6f69 	rsbeq	r6, lr, r9, ror #30
 200:	66696873 			; <UNDEFINED> instruction: 0x66696873
 204:	50470074 	subpl	r0, r7, r4, ror r0
 208:	445f4f49 	ldrbmi	r4, [pc], #-3913	; 210 <_start-0x7df0>
 20c:	43455445 	movtmi	r5, #21573	; 0x5445
 210:	4f4c5f54 	svcmi	0x004c5f54
 214:	454c5f57 	strbmi	r5, [ip, #-3927]	; 0xf57
 218:	004c4556 	subeq	r4, ip, r6, asr r5
 21c:	69676572 	stmdbvs	r7!, {r1, r4, r5, r6, r8, sl, sp, lr}^
 220:	72657473 	rsbvc	r7, r5, #1929379840	; 0x73000000
 224:	50470073 	subpl	r0, r7, r3, ror r0
 228:	445f4f49 	ldrbmi	r4, [pc], #-3913	; 230 <_start-0x7dd0>
 22c:	43455445 	movtmi	r5, #21573	; 0x5445
 230:	53415f54 	movtpl	r5, #8020	; 0x1f54
 234:	5f434e59 	svcpl	0x00434e59
 238:	49534952 	ldmdbmi	r3, {r1, r4, r6, r8, fp, lr}^
 23c:	455f474e 	ldrbmi	r4, [pc, #-1870]	; fffffaf6 <__bss_end__+0xffff5456>
 240:	00454744 	subeq	r4, r5, r4, asr #14
 244:	6e656661 	cdpvs	6, 6, cr6, cr5, cr1, {3}
 248:	69706700 	ldmdbvs	r0!, {r8, r9, sl, sp, lr}^
 24c:	65735f6f 	ldrbvs	r5, [r3, #-3951]!	; 0xf6f
 250:	65645f74 	strbvs	r5, [r4, #-3956]!	; 0xf74
 254:	74636574 	strbtvc	r6, [r3], #-1396	; 0x574
 258:	006e6f69 	rsbeq	r6, lr, r9, ror #30
 25c:	6f697067 	svcvs	0x00697067
 260:	7465735f 	strbtvc	r7, [r5], #-863	; 0x35f
 264:	6c75705f 	ldclvs	0, cr7, [r5], #-380	; 0xfffffe84
 268:	6e6f6e6c 	cdpvs	14, 6, cr6, cr15, cr12, {3}
 26c:	50470065 	subpl	r0, r7, r5, rrx
 270:	505f4f49 	subspl	r4, pc, r9, asr #30
 274:	505f4455 	subspl	r4, pc, r5, asr r4	; <UNPREDICTABLE>
 278:	444c4c55 	strbmi	r4, [ip], #-3157	; 0xc55
 27c:	004e574f 	subeq	r5, lr, pc, asr #14
 280:	65736572 	ldrbvs	r6, [r3, #-1394]!	; 0x572
 284:	64657672 	strbtvs	r7, [r5], #-1650	; 0x672
 288:	50470041 	subpl	r0, r7, r1, asr #32
 28c:	505f4f49 	subspl	r4, pc, r9, asr #30
 290:	30344e49 	eorscc	r4, r4, r9, asr #28
 294:	49504700 	ldmdbmi	r0, {r8, r9, sl, lr}^
 298:	49505f4f 	ldmdbmi	r0, {r0, r1, r2, r3, r6, r8, r9, sl, fp, ip, lr}^
 29c:	0031344e 	eorseq	r3, r1, lr, asr #8
 2a0:	4f495047 	svcmi	0x00495047
 2a4:	4e49505f 	mcrmi	0, 2, r5, cr9, cr15, {2}
 2a8:	47003234 	smladxmi	r0, r4, r2, r3
 2ac:	5f4f4950 	svcpl	0x004f4950
 2b0:	344e4950 	strbcc	r4, [lr], #-2384	; 0x950
 2b4:	50470033 	subpl	r0, r7, r3, lsr r0
 2b8:	505f4f49 	subspl	r4, pc, r9, asr #30
 2bc:	34344e49 	ldrtcc	r4, [r4], #-3657	; 0xe49
 2c0:	49504700 	ldmdbmi	r0, {r8, r9, sl, lr}^
 2c4:	49505f4f 	ldmdbmi	r0, {r0, r1, r2, r3, r6, r8, r9, sl, fp, ip, lr}^
 2c8:	0035344e 	eorseq	r3, r5, lr, asr #8
 2cc:	4f495047 	svcmi	0x00495047
 2d0:	4e49505f 	mcrmi	0, 2, r5, cr9, cr15, {2}
 2d4:	47003634 	smladxmi	r0, r4, r6, r3
 2d8:	5f4f4950 	svcpl	0x004f4950
 2dc:	344e4950 	strbcc	r4, [lr], #-2384	; 0x950
 2e0:	50470037 	subpl	r0, r7, r7, lsr r0
 2e4:	505f4f49 	subspl	r4, pc, r9, asr #30
 2e8:	38344e49 	ldmdacc	r4!, {r0, r3, r6, r9, sl, fp, lr}
 2ec:	49504700 	ldmdbmi	r0, {r8, r9, sl, lr}^
 2f0:	49505f4f 	ldmdbmi	r0, {r0, r1, r2, r3, r6, r8, r9, sl, fp, ip, lr}^
 2f4:	0039344e 	eorseq	r3, r9, lr, asr #8
 2f8:	69736e75 	ldmdbvs	r3!, {r0, r2, r4, r5, r6, r9, sl, fp, sp, lr}^
 2fc:	64656e67 	strbtvs	r6, [r5], #-3687	; 0xe67
 300:	61686320 	cmnvs	r8, r0, lsr #6
 304:	50470072 	subpl	r0, r7, r2, ror r0
 308:	505f4f49 	subspl	r4, pc, r9, asr #30
 30c:	505f4455 	subspl	r4, pc, r5, asr r4	; <UNPREDICTABLE>
 310:	554c4c55 	strbpl	r4, [ip, #-3157]	; 0xc55
 314:	6f6c0050 	svcvs	0x006c0050
 318:	6c20676e 	stcvs	7, cr6, [r0], #-440	; 0xfffffe48
 31c:	20676e6f 	rsbcs	r6, r7, pc, ror #28
 320:	69736e75 	ldmdbvs	r3!, {r0, r2, r4, r5, r6, r9, sl, fp, sp, lr}^
 324:	64656e67 	strbtvs	r6, [r5], #-3687	; 0xe67
 328:	746e6920 	strbtvc	r6, [lr], #-2336	; 0x920
 32c:	6e697500 	cdpvs	5, 6, cr7, cr9, cr0, {0}
 330:	5f323374 	svcpl	0x00323374
 334:	675f0074 			; <UNDEFINED> instruction: 0x675f0074
 338:	006f6970 	rsbeq	r6, pc, r0, ror r9	; <UNPREDICTABLE>
 33c:	4f495047 	svcmi	0x00495047
 340:	5445445f 	strbpl	r4, [r5], #-1119	; 0x45f
 344:	5f544345 	svcpl	0x00544345
 348:	48474948 	stmdami	r7, {r3, r6, r8, fp, lr}^
 34c:	56454c5f 			; <UNDEFINED> instruction: 0x56454c5f
 350:	73004c45 	movwvc	r4, #3141	; 0xc45
 354:	74726f68 	ldrbtvc	r6, [r2], #-3944	; 0xf68
 358:	736e7520 	cmnvc	lr, #32, 10	; 0x8000000
 35c:	656e6769 	strbvs	r6, [lr, #-1897]!	; 0x769
 360:	6e692064 	cdpvs	0, 6, cr2, cr9, cr4, {3}
 364:	61620074 	smcvs	8196	; 0x2004
 368:	47006b6e 	strmi	r6, [r0, -lr, ror #22]
 36c:	5f4f4950 	svcpl	0x004f4950
 370:	45544544 	ldrbmi	r4, [r4, #-1348]	; 0x544
 374:	465f5443 	ldrbmi	r5, [pc], -r3, asr #8
 378:	494c4c41 	stmdbmi	ip, {r0, r6, sl, fp, lr}^
 37c:	455f474e 	ldrbmi	r4, [pc, #-1870]	; fffffc36 <__bss_end__+0xffff5596>
 380:	00454744 	subeq	r4, r5, r4, asr #14
 384:	4f495047 	svcmi	0x00495047
 388:	4e49505f 	mcrmi	0, 2, r5, cr9, cr15, {2}
 38c:	47003031 	smladxmi	r0, r1, r0, r3
 390:	5f4f4950 	svcpl	0x004f4950
 394:	314e4950 	cmpcc	lr, r0, asr r9
 398:	50470031 	subpl	r0, r7, r1, lsr r0
 39c:	505f4f49 	subspl	r4, pc, r9, asr #30
 3a0:	32314e49 	eorscc	r4, r1, #1168	; 0x490
 3a4:	49504700 	ldmdbmi	r0, {r8, r9, sl, lr}^
 3a8:	49505f4f 	ldmdbmi	r0, {r0, r1, r2, r3, r6, r8, r9, sl, fp, ip, lr}^
 3ac:	0033314e 	eorseq	r3, r3, lr, asr #2
 3b0:	4f495047 	svcmi	0x00495047
 3b4:	4e49505f 	mcrmi	0, 2, r5, cr9, cr15, {2}
 3b8:	47003431 	smladxmi	r0, r1, r4, r3
 3bc:	5f4f4950 	svcpl	0x004f4950
 3c0:	314e4950 	cmpcc	lr, r0, asr r9
 3c4:	50470035 	subpl	r0, r7, r5, lsr r0
 3c8:	505f4f49 	subspl	r4, pc, r9, asr #30
 3cc:	36314e49 	ldrtcc	r4, [r1], -r9, asr #28
 3d0:	49504700 	ldmdbmi	r0, {r8, r9, sl, lr}^
 3d4:	49505f4f 	ldmdbmi	r0, {r0, r1, r2, r3, r6, r8, r9, sl, fp, ip, lr}^
 3d8:	0037314e 	eorseq	r3, r7, lr, asr #2
 3dc:	4f495047 	svcmi	0x00495047
 3e0:	4e49505f 	mcrmi	0, 2, r5, cr9, cr15, {2}
 3e4:	47003831 	smladxmi	r0, r1, r8, r3
 3e8:	5f4f4950 	svcpl	0x004f4950
 3ec:	314e4950 	cmpcc	lr, r0, asr r9
 3f0:	425f0039 	subsmi	r0, pc, #57	; 0x39
 3f4:	006c6f6f 	rsbeq	r6, ip, pc, ror #30
 3f8:	4f495047 	svcmi	0x00495047
 3fc:	4e49505f 	mcrmi	0, 2, r5, cr9, cr15, {2}
 400:	47003035 	smladxmi	r0, r5, r0, r3
 404:	5f4f4950 	svcpl	0x004f4950
 408:	354e4950 	strbcc	r4, [lr, #-2384]	; 0x950
 40c:	50470031 	subpl	r0, r7, r1, lsr r0
 410:	505f4f49 	subspl	r4, pc, r9, asr #30
 414:	32354e49 	eorscc	r4, r5, #1168	; 0x490
 418:	49504700 	ldmdbmi	r0, {r8, r9, sl, lr}^
 41c:	49505f4f 	ldmdbmi	r0, {r0, r1, r2, r3, r6, r8, r9, sl, fp, ip, lr}^
 420:	0033354e 	eorseq	r3, r3, lr, asr #10
 424:	6f697067 	svcvs	0x00697067
 428:	7369645f 	cmnvc	r9, #1593835520	; 0x5f000000
 42c:	656c6261 	strbvs	r6, [ip, #-609]!	; 0x261
 430:	6576655f 	ldrbvs	r6, [r6, #-1375]!	; 0x55f
 434:	645f746e 	ldrbvs	r7, [pc], #-1134	; 43c <_start-0x7bc4>
 438:	63657465 	cmnvs	r5, #1694498816	; 0x65000000
 43c:	6e6f6974 	mcrvs	9, 3, r6, cr15, cr4, {3}
 440:	49504700 	ldmdbmi	r0, {r8, r9, sl, lr}^
 444:	49505f4f 	ldmdbmi	r0, {r0, r1, r2, r3, r6, r8, r9, sl, fp, ip, lr}^
 448:	49465f4e 	stmdbmi	r6, {r1, r2, r3, r6, r8, r9, sl, fp, ip, lr}^
 44c:	00545352 	subseq	r5, r4, r2, asr r3
 450:	6f697067 	svcvs	0x00697067
 454:	72747865 	rsbsvc	r7, r4, #6619136	; 0x650000
 458:	00632e61 	rsbeq	r2, r3, r1, ror #28
 45c:	65736572 	ldrbvs	r6, [r3, #-1394]!	; 0x572
 460:	64657672 	strbtvs	r7, [r5], #-1650	; 0x672
 464:	65720042 	ldrbvs	r0, [r2, #-66]!	; 0x42
 468:	76726573 			; <UNDEFINED> instruction: 0x76726573
 46c:	00436465 	subeq	r6, r3, r5, ror #8
 470:	65736572 	ldrbvs	r6, [r3, #-1394]!	; 0x572
 474:	64657672 	strbtvs	r7, [r5], #-1650	; 0x672
 478:	65720044 	ldrbvs	r0, [r2, #-68]!	; 0x44
 47c:	76726573 			; <UNDEFINED> instruction: 0x76726573
 480:	00456465 	subeq	r6, r5, r5, ror #8
 484:	65736572 	ldrbvs	r6, [r3, #-1394]!	; 0x572
 488:	64657672 	strbtvs	r7, [r5], #-1650	; 0x672
 48c:	65720046 	ldrbvs	r0, [r2, #-70]!	; 0x46
 490:	76726573 			; <UNDEFINED> instruction: 0x76726573
 494:	00476465 	subeq	r6, r7, r5, ror #8
 498:	65736572 	ldrbvs	r6, [r3, #-1394]!	; 0x572
 49c:	64657672 	strbtvs	r7, [r5], #-1650	; 0x672
 4a0:	65720048 	ldrbvs	r0, [r2, #-72]!	; 0x48
 4a4:	76726573 			; <UNDEFINED> instruction: 0x76726573
 4a8:	00496465 	subeq	r6, r9, r5, ror #8
 4ac:	65736572 	ldrbvs	r6, [r3, #-1394]!	; 0x572
 4b0:	64657672 	strbtvs	r7, [r5], #-1650	; 0x672
 4b4:	6572004a 	ldrbvs	r0, [r2, #-74]!	; 0x4a
 4b8:	76726573 			; <UNDEFINED> instruction: 0x76726573
 4bc:	004b6465 	subeq	r6, fp, r5, ror #8
 4c0:	4f495047 	svcmi	0x00495047
 4c4:	4e49505f 	mcrmi	0, 2, r5, cr9, cr15, {2}
 4c8:	50470030 	subpl	r0, r7, r0, lsr r0
 4cc:	505f4f49 	subspl	r4, pc, r9, asr #30
 4d0:	00314e49 	eorseq	r4, r1, r9, asr #28
 4d4:	4f495047 	svcmi	0x00495047
 4d8:	4e49505f 	mcrmi	0, 2, r5, cr9, cr15, {2}
 4dc:	50470032 	subpl	r0, r7, r2, lsr r0
 4e0:	505f4f49 	subspl	r4, pc, r9, asr #30
 4e4:	00334e49 	eorseq	r4, r3, r9, asr #28
 4e8:	4f495047 	svcmi	0x00495047
 4ec:	4e49505f 	mcrmi	0, 2, r5, cr9, cr15, {2}
 4f0:	50470034 	subpl	r0, r7, r4, lsr r0
 4f4:	505f4f49 	subspl	r4, pc, r9, asr #30
 4f8:	00354e49 	eorseq	r4, r5, r9, asr #28
 4fc:	4f495047 	svcmi	0x00495047
 500:	4e49505f 	mcrmi	0, 2, r5, cr9, cr15, {2}
 504:	50470036 	subpl	r0, r7, r6, lsr r0
 508:	505f4f49 	subspl	r4, pc, r9, asr #30
 50c:	00374e49 	eorseq	r4, r7, r9, asr #28
 510:	4f495047 	svcmi	0x00495047
 514:	4e49505f 	mcrmi	0, 2, r5, cr9, cr15, {2}
 518:	50470038 	subpl	r0, r7, r8, lsr r0
 51c:	505f4f49 	subspl	r4, pc, r9, asr #30
 520:	00394e49 	eorseq	r4, r9, r9, asr #28
 524:	4f495047 	svcmi	0x00495047
 528:	4e49505f 	mcrmi	0, 2, r5, cr9, cr15, {2}
 52c:	47003032 	smladxmi	r0, r2, r0, r3
 530:	5f4f4950 	svcpl	0x004f4950
 534:	324e4950 	subcc	r4, lr, #80, 18	; 0x140000
 538:	50470031 	subpl	r0, r7, r1, lsr r0
 53c:	505f4f49 	subspl	r4, pc, r9, asr #30
 540:	32324e49 	eorscc	r4, r2, #1168	; 0x490
 544:	49504700 	ldmdbmi	r0, {r8, r9, sl, lr}^
 548:	49505f4f 	ldmdbmi	r0, {r0, r1, r2, r3, r6, r8, r9, sl, fp, ip, lr}^
 54c:	0033324e 	eorseq	r3, r3, lr, asr #4
 550:	4f495047 	svcmi	0x00495047
 554:	4e49505f 	mcrmi	0, 2, r5, cr9, cr15, {2}
 558:	47003432 	smladxmi	r0, r2, r4, r3
 55c:	5f4f4950 	svcpl	0x004f4950
 560:	324e4950 	subcc	r4, lr, #80, 18	; 0x140000
 564:	50470035 	subpl	r0, r7, r5, lsr r0
 568:	505f4f49 	subspl	r4, pc, r9, asr #30
 56c:	36324e49 	ldrtcc	r4, [r2], -r9, asr #28
 570:	49504700 	ldmdbmi	r0, {r8, r9, sl, lr}^
 574:	49505f4f 	ldmdbmi	r0, {r0, r1, r2, r3, r6, r8, r9, sl, fp, ip, lr}^
 578:	0037324e 	eorseq	r3, r7, lr, asr #4
 57c:	4f495047 	svcmi	0x00495047
 580:	4e49505f 	mcrmi	0, 2, r5, cr9, cr15, {2}
 584:	47003832 	smladxmi	r0, r2, r8, r3
 588:	5f4f4950 	svcpl	0x004f4950
 58c:	324e4950 	subcc	r4, lr, #80, 18	; 0x140000
 590:	50470039 	subpl	r0, r7, r9, lsr r0
 594:	505f4f49 	subspl	r4, pc, r9, asr #30
 598:	445f4455 	ldrbmi	r4, [pc], #-1109	; 5a0 <_start-0x7a60>
 59c:	42415349 	submi	r5, r1, #603979777	; 0x24000001
 5a0:	6700454c 	strvs	r4, [r0, -ip, asr #10]
 5a4:	5f6f6970 	svcpl	0x006f6970
 5a8:	5f746573 	svcpl	0x00746573
 5ac:	00647570 	rsbeq	r7, r4, r0, ror r5

Disassembly of section .debug_frame:

00000000 <.debug_frame>:
   0:	0000000c 	andeq	r0, r0, ip
   4:	ffffffff 			; <UNDEFINED> instruction: 0xffffffff
   8:	7c020001 	stcvc	0, cr0, [r2], {1}
   c:	000d0c0e 	andeq	r0, sp, lr, lsl #24
  10:	0000002c 	andeq	r0, r0, ip, lsr #32
  14:	00000000 	andeq	r0, r0, r0
  18:	00008fe4 	andeq	r8, r0, r4, ror #31
  1c:	00000058 	andeq	r0, r0, r8, asr r0
  20:	420c0d42 	andmi	r0, ip, #4224	; 0x1080
  24:	048b0584 	streq	r0, [fp], #1412	; 0x584
  28:	028e038d 	addeq	r0, lr, #872415234	; 0x34000002
  2c:	040b0c42 	streq	r0, [fp], #-3138	; 0xc42
  30:	0d0c0a5c 	vstreq	s0, [ip, #-368]	; 0xfffffe90
  34:	cdce4214 	sfmgt	f4, 2, [lr, #80]	; 0x50
  38:	040ec4cb 	streq	ip, [lr], #-1227	; 0x4cb
  3c:	00000b42 	andeq	r0, r0, r2, asr #22
  40:	00000028 	andeq	r0, r0, r8, lsr #32
  44:	00000000 	andeq	r0, r0, r0
  48:	00009050 	andeq	r9, r0, r0, asr r0
  4c:	000000a4 	andeq	r0, r0, r4, lsr #1
  50:	420c0d42 	andmi	r0, ip, #4224	; 0x1080
  54:	038d048b 	orreq	r0, sp, #-1962934272	; 0x8b000000
  58:	0c42028e 	sfmeq	f0, 2, [r2], {142}	; 0x8e
  5c:	4602040b 	strmi	r0, [r2], -fp, lsl #8
  60:	42100d0c 	andsmi	r0, r0, #12, 26	; 0x300
  64:	0ecbcdce 	cdpeq	13, 12, cr12, cr11, cr14, {6}
  68:	00000004 	andeq	r0, r0, r4
  6c:	00000030 	andeq	r0, r0, r0, lsr r0
  70:	00000000 	andeq	r0, r0, r0
  74:	00009114 	andeq	r9, r0, r4, lsl r1
  78:	00000064 	andeq	r0, r0, r4, rrx
  7c:	420c0d42 	andmi	r0, ip, #4224	; 0x1080
  80:	05850684 	streq	r0, [r5, #1668]	; 0x684
  84:	038d048b 	orreq	r0, sp, #-1962934272	; 0x8b000000
  88:	0c42028e 	sfmeq	f0, 2, [r2], {142}	; 0x8e
  8c:	0a64040b 	beq	19010c0 <__bss_end__+0x18f6a20>
  90:	42180d0c 	andsmi	r0, r8, #12, 26	; 0x300
  94:	c5cbcdce 	strbgt	ip, [fp, #3534]	; 0xdce
  98:	42040ec4 	andmi	r0, r4, #196, 28	; 0xc40
  9c:	0000000b 	andeq	r0, r0, fp
  a0:	00000028 	andeq	r0, r0, r8, lsr #32
  a4:	00000000 	andeq	r0, r0, r0
  a8:	00009190 	muleq	r0, r0, r1
  ac:	00000050 	andeq	r0, r0, r0, asr r0
  b0:	420c0d42 	andmi	r0, ip, #4224	; 0x1080
  b4:	038d048b 	orreq	r0, sp, #-1962934272	; 0x8b000000
  b8:	0c42028e 	sfmeq	f0, 2, [r2], {142}	; 0x8e
  bc:	0a58040b 	beq	16010f0 <__bss_end__+0x15f6a50>
  c0:	42100d0c 	andsmi	r0, r0, #12, 26	; 0x300
  c4:	0ecbcdce 	cdpeq	13, 12, cr12, cr11, cr14, {6}
  c8:	000b4204 	andeq	r4, fp, r4, lsl #4
  cc:	00000030 	andeq	r0, r0, r0, lsr r0
  d0:	00000000 	andeq	r0, r0, r0
  d4:	000091f8 	strdeq	r9, [r0], -r8
  d8:	00000050 	andeq	r0, r0, r0, asr r0
  dc:	420c0d42 	andmi	r0, ip, #4224	; 0x1080
  e0:	05850684 	streq	r0, [r5, #1668]	; 0x684
  e4:	038d048b 	orreq	r0, sp, #-1962934272	; 0x8b000000
  e8:	0c42028e 	sfmeq	f0, 2, [r2], {142}	; 0x8e
  ec:	0a46040b 	beq	1181120 <__bss_end__+0x1176a80>
  f0:	42180d0c 	andsmi	r0, r8, #12, 26	; 0x300
  f4:	c5cbcdce 	strbgt	ip, [fp, #3534]	; 0xdce
  f8:	42040ec4 	andmi	r0, r4, #196, 28	; 0xc40
  fc:	0000000b 	andeq	r0, r0, fp
 100:	00000030 	andeq	r0, r0, r0, lsr r0
 104:	00000000 	andeq	r0, r0, r0
 108:	00009260 	andeq	r9, r0, r0, ror #4
 10c:	00000080 	andeq	r0, r0, r0, lsl #1
 110:	420c0d42 	andmi	r0, ip, #4224	; 0x1080
 114:	05850684 	streq	r0, [r5, #1668]	; 0x684
 118:	038d048b 	orreq	r0, sp, #-1962934272	; 0x8b000000
 11c:	0c42028e 	sfmeq	f0, 2, [r2], {142}	; 0x8e
 120:	0a6c040b 	beq	1b01154 <__bss_end__+0x1af6ab4>
 124:	42180d0c 	andsmi	r0, r8, #12, 26	; 0x300
 128:	c5cbcdce 	strbgt	ip, [fp, #3534]	; 0xdce
 12c:	42040ec4 	andmi	r0, r4, #196, 28	; 0xc40
 130:	0000000b 	andeq	r0, r0, fp
 134:	00000024 	andeq	r0, r0, r4, lsr #32
 138:	00000000 	andeq	r0, r0, r0
 13c:	00009304 	andeq	r9, r0, r4, lsl #6
 140:	00000020 	andeq	r0, r0, r0, lsr #32
 144:	420c0d42 	andmi	r0, ip, #4224	; 0x1080
 148:	038d048b 	orreq	r0, sp, #-1962934272	; 0x8b000000
 14c:	0c42028e 	sfmeq	f0, 2, [r2], {142}	; 0x8e
 150:	0c46040b 	cfstrdeq	mvd0, [r6], {11}
 154:	ce42100d 	cdpgt	0, 4, cr1, cr2, cr13, {0}
 158:	040ecbcd 	streq	ip, [lr], #-3021	; 0xbcd
 15c:	00000024 	andeq	r0, r0, r4, lsr #32
 160:	00000000 	andeq	r0, r0, r0
 164:	00009344 	andeq	r9, r0, r4, asr #6
 168:	00000020 	andeq	r0, r0, r0, lsr #32
 16c:	420c0d42 	andmi	r0, ip, #4224	; 0x1080
 170:	038d048b 	orreq	r0, sp, #-1962934272	; 0x8b000000
 174:	0c42028e 	sfmeq	f0, 2, [r2], {142}	; 0x8e
 178:	0c46040b 	cfstrdeq	mvd0, [r6], {11}
 17c:	ce42100d 	cdpgt	0, 4, cr1, cr2, cr13, {0}
 180:	040ecbcd 	streq	ip, [lr], #-3021	; 0xbcd
 184:	00000030 	andeq	r0, r0, r0, lsr r0
 188:	00000000 	andeq	r0, r0, r0
 18c:	00009384 	andeq	r9, r0, r4, lsl #7
 190:	00000044 	andeq	r0, r0, r4, asr #32
 194:	420c0d42 	andmi	r0, ip, #4224	; 0x1080
 198:	05850684 	streq	r0, [r5, #1668]	; 0x684
 19c:	038d048b 	orreq	r0, sp, #-1962934272	; 0x8b000000
 1a0:	0c42028e 	sfmeq	f0, 2, [r2], {142}	; 0x8e
 1a4:	0a4c040b 	beq	13011d8 <__bss_end__+0x12f6b38>
 1a8:	42180d0c 	andsmi	r0, r8, #12, 26	; 0x300
 1ac:	c5cbcdce 	strbgt	ip, [fp, #3534]	; 0xdce
 1b0:	42040ec4 	andmi	r0, r4, #196, 28	; 0xc40
 1b4:	0000000b 	andeq	r0, r0, fp
 1b8:	0000002c 	andeq	r0, r0, ip, lsr #32
 1bc:	00000000 	andeq	r0, r0, r0
 1c0:	000093f0 	strdeq	r9, [r0], -r0
 1c4:	00000050 	andeq	r0, r0, r0, asr r0
 1c8:	420c0d42 	andmi	r0, ip, #4224	; 0x1080
 1cc:	05850684 	streq	r0, [r5, #1668]	; 0x684
 1d0:	038d048b 	orreq	r0, sp, #-1962934272	; 0x8b000000
 1d4:	0c42028e 	sfmeq	f0, 2, [r2], {142}	; 0x8e
 1d8:	0c5e040b 	cfldrdeq	mvd0, [lr], {11}
 1dc:	ce42180d 	cdpgt	8, 4, cr1, cr2, cr13, {0}
 1e0:	c4c5cbcd 	strbgt	ip, [r5], #3021	; 0xbcd
 1e4:	0000040e 	andeq	r0, r0, lr, lsl #8
 1e8:	00000024 	andeq	r0, r0, r4, lsr #32
 1ec:	00000000 	andeq	r0, r0, r0
 1f0:	00009454 	andeq	r9, r0, r4, asr r4
 1f4:	00000020 	andeq	r0, r0, r0, lsr #32
 1f8:	420c0d42 	andmi	r0, ip, #4224	; 0x1080
 1fc:	038d048b 	orreq	r0, sp, #-1962934272	; 0x8b000000
 200:	0c42028e 	sfmeq	f0, 2, [r2], {142}	; 0x8e
 204:	0c46040b 	cfstrdeq	mvd0, [r6], {11}
 208:	ce42100d 	cdpgt	0, 4, cr1, cr2, cr13, {0}
 20c:	040ecbcd 	streq	ip, [lr], #-3021	; 0xbcd
 210:	00000024 	andeq	r0, r0, r4, lsr #32
 214:	00000000 	andeq	r0, r0, r0
 218:	0000948c 	andeq	r9, r0, ip, lsl #9
 21c:	00000020 	andeq	r0, r0, r0, lsr #32
 220:	420c0d42 	andmi	r0, ip, #4224	; 0x1080
 224:	038d048b 	orreq	r0, sp, #-1962934272	; 0x8b000000
 228:	0c42028e 	sfmeq	f0, 2, [r2], {142}	; 0x8e
 22c:	0c46040b 	cfstrdeq	mvd0, [r6], {11}
 230:	ce42100d 	cdpgt	0, 4, cr1, cr2, cr13, {0}
 234:	040ecbcd 	streq	ip, [lr], #-3021	; 0xbcd
 238:	00000024 	andeq	r0, r0, r4, lsr #32
 23c:	00000000 	andeq	r0, r0, r0
 240:	000094c4 	andeq	r9, r0, r4, asr #9
 244:	00000020 	andeq	r0, r0, r0, lsr #32
 248:	420c0d42 	andmi	r0, ip, #4224	; 0x1080
 24c:	038d048b 	orreq	r0, sp, #-1962934272	; 0x8b000000
 250:	0c42028e 	sfmeq	f0, 2, [r2], {142}	; 0x8e
 254:	0c46040b 	cfstrdeq	mvd0, [r6], {11}
 258:	ce42100d 	cdpgt	0, 4, cr1, cr2, cr13, {0}
 25c:	040ecbcd 	streq	ip, [lr], #-3021	; 0xbcd
